---
triple:          'arm64-apple-darwin'
binary-path:     a.out
relocations:
  - { offsetInCU: 0x4DCA, offset: 0x4DCA, size: 0x8, addend: 0x0, symName: __ZNSt3__17advanceB7v160006IPimmvEEvRT_T0_, symObjAddr: 0x5C58, symBinAddr: 0x100006430, symSize: 0x50 }
  - { offsetInCU: 0x5257, offset: 0x5257, size: 0x8, addend: 0x0, symName: __ZNSt3__16chronomiB7v160006IxNS_5ratioILl1ELl1000000000EEExS3_EENS_11common_typeIJNS0_8durationIT_T0_EENS5_IT1_T2_EEEE4typeERKS8_RKSB_, symObjAddr: 0xA934, symBinAddr: 0x10000B10C, symSize: 0x70 }
  - { offsetInCU: 0x52C4, offset: 0x52C4, size: 0x8, addend: 0x0, symName: __ZNSt3__16chrono13duration_castB7v160006INS0_8durationIxNS_5ratioILl1ELl1000000EEEEExNS3_ILl1ELl1000000000EEEEENS_9enable_ifIXsr13__is_durationIT_EE5valueES8_E4typeERKNS2_IT0_T1_EE, symObjAddr: 0x1BF0, symBinAddr: 0x1000023C8, symSize: 0x30 }
  - { offsetInCU: 0x530B, offset: 0x530B, size: 0x8, addend: 0x0, symName: __ZNSt3__16chronomiB7v160006INS0_12steady_clockENS0_8durationIxNS_5ratioILl1ELl1000000000EEEEES6_EENS_11common_typeIJT0_T1_EE4typeERKNS0_10time_pointIT_S8_EERKNSC_ISD_S9_EE, symObjAddr: 0x1C20, symBinAddr: 0x1000023F8, symSize: 0x58 }
  - { offsetInCU: 0x5644, offset: 0x5644, size: 0x8, addend: 0x0, symName: __ZNSt3__124__put_character_sequenceB7v160006IcNS_11char_traitsIcEEEERNS_13basic_ostreamIT_T0_EES7_PKS4_m, symObjAddr: 0x6B20, symBinAddr: 0x1000072F8, symSize: 0x1EC }
  - { offsetInCU: 0xA7F7, offset: 0xA7F7, size: 0x8, addend: 0x0, symName: __ZNSt3__111__introsortINS_17_ClassicAlgPolicyERNS_6__lessI6bignumS3_EEPS3_EEvT1_S7_T0_NS_15iterator_traitsIS7_E15difference_typeE, symObjAddr: 0xC8B0, symBinAddr: 0x10000D088, symSize: 0x6D0 }
  - { offsetInCU: 0xA952, offset: 0xA952, size: 0x8, addend: 0x0, symName: __ZNSt3__118__insertion_sort_3B7v160006INS_17_ClassicAlgPolicyERNS_6__lessI6bignumS3_EEPS3_EEvT1_S7_T0_, symObjAddr: 0xD0CC, symBinAddr: 0x10000D8A4, symSize: 0x17C }
  - { offsetInCU: 0xAA15, offset: 0xAA15, size: 0x8, addend: 0x0, symName: __ZNSt3__111__sift_downB7v160006INS_17_ClassicAlgPolicyERNS_6__lessI6bignumS3_EEPS3_EEvT1_OT0_NS_15iterator_traitsIS7_E15difference_typeES7_, symObjAddr: 0xDB80, symBinAddr: 0x10000E358, symSize: 0x254 }
  - { offsetInCU: 0xAAC2, offset: 0xAAC2, size: 0x8, addend: 0x0, symName: __ZNSt3__117__floyd_sift_downB7v160006INS_17_ClassicAlgPolicyERNS_6__lessI6bignumS3_EEPS3_EET1_S7_OT0_NS_15iterator_traitsIS7_E15difference_typeE, symObjAddr: 0xDF9C, symBinAddr: 0x10000E774, symSize: 0x108 }
  - { offsetInCU: 0xAB5A, offset: 0xAB5A, size: 0x8, addend: 0x0, symName: __ZNSt3__127__insertion_sort_incompleteIRNS_6__lessI6bignumS2_EEPS2_EEbT0_S6_T_, symObjAddr: 0xD474, symBinAddr: 0x10000DC4C, symSize: 0x36C }
  - { offsetInCU: 0xBB9E, offset: 0xBB9E, size: 0x8, addend: 0x0, symName: __ZNSt3__1lsB7v160006IcNS_11char_traitsIcEENS_9allocatorIcEEEERNS_13basic_ostreamIT_T0_EES9_RKNS_12basic_stringIS6_S7_T1_EE, symObjAddr: 0x1374, symBinAddr: 0x100001B4C, symSize: 0x4C }
  - { offsetInCU: 0xC3D0, offset: 0xC3D0, size: 0x8, addend: 0x0, symName: __ZNSt3__1neB7v160006IP6bignumEEbRKNS_11__wrap_iterIT_EES7_, symObjAddr: 0x1B38, symBinAddr: 0x100002310, symSize: 0x34 }
  - { offsetInCU: 0xC413, offset: 0xC413, size: 0x8, addend: 0x0, symName: __ZNSt3__1lsB7v160006INS_11char_traitsIcEEEERNS_13basic_ostreamIcT_EES6_PKc, symObjAddr: 0x1C90, symBinAddr: 0x100002468, symSize: 0x48 }
  - { offsetInCU: 0xC459, offset: 0xC459, size: 0x8, addend: 0x0, symName: __ZNSt3__1lsB7v160006IcNS_11char_traitsIcEEEERNS_13basic_ostreamIT_T0_EES7_RKNS_8__iom_t5E, symObjAddr: 0x1CD8, symBinAddr: 0x1000024B0, symSize: 0x40 }
  - { offsetInCU: 0xC4A5, offset: 0xC4A5, size: 0x8, addend: 0x0, symName: __ZNSt3__15fixedB7v160006ERNS_8ios_baseE, symObjAddr: 0x1D58, symBinAddr: 0x100002530, symSize: 0x30 }
  - { offsetInCU: 0xC4D3, offset: 0xC4D3, size: 0x8, addend: 0x0, symName: __ZNSt3__112setprecisionB7v160006Ei, symObjAddr: 0x1D88, symBinAddr: 0x100002560, symSize: 0x2C }
  - { offsetInCU: 0xC4FF, offset: 0xC4FF, size: 0x8, addend: 0x0, symName: __ZNSt3__14endlB7v160006IcNS_11char_traitsIcEEEERNS_13basic_ostreamIT_T0_EES7_, symObjAddr: 0x1DE0, symBinAddr: 0x1000025B8, symSize: 0x58 }
  - { offsetInCU: 0xC53F, offset: 0xC53F, size: 0x8, addend: 0x0, symName: __ZNSt3__1neB7v160006ERKNS_21__hash_const_iteratorIPNS_11__hash_nodeINS_12basic_stringIcNS_11char_traitsIcEENS_9allocatorIcEEEEPvEEEESD_, symObjAddr: 0x1E64, symBinAddr: 0x10000263C, symSize: 0x34 }
  - { offsetInCU: 0xC57C, offset: 0xC57C, size: 0x8, addend: 0x0, symName: __ZNSt3__14sortB7v160006INS_11__wrap_iterIP6bignumEEEEvT_S5_, symObjAddr: 0x2754, symBinAddr: 0x100002F2C, symSize: 0x3C }
  - { offsetInCU: 0xC5BE, offset: 0xC5BE, size: 0x8, addend: 0x0, symName: __ZNSt3__122__make_exception_guardB7v160006INS_6vectorIiNS_9allocatorIiEEE16__destroy_vectorEEENS_28__exception_guard_exceptionsIT_EES7_, symObjAddr: 0x29AC, symBinAddr: 0x100003184, symSize: 0x40 }
  - { offsetInCU: 0xC5F3, offset: 0xC5F3, size: 0x8, addend: 0x0, symName: __ZNSt3__119__debug_db_insert_cB7v160006INS_6vectorIiNS_9allocatorIiEEEEEEvPT_, symObjAddr: 0x2A20, symBinAddr: 0x1000031F8, symSize: 0x10 }
  - { offsetInCU: 0xC624, offset: 0xC624, size: 0x8, addend: 0x0, symName: __ZNSt3__119__allocate_at_leastB7v160006INS_9allocatorIiEEEENS_19__allocation_resultINS_16allocator_traitsIT_E7pointerEEERS5_m, symObjAddr: 0x2D54, symBinAddr: 0x10000352C, symSize: 0x40 }
  - { offsetInCU: 0xC667, offset: 0xC667, size: 0x8, addend: 0x0, symName: __ZNSt3__13minB7v160006ImEERKT_S3_S3_, symObjAddr: 0x2E90, symBinAddr: 0x100003668, symSize: 0x2C }
  - { offsetInCU: 0xC8AB, offset: 0xC8AB, size: 0x8, addend: 0x0, symName: __ZNSt3__13minB7v160006ImNS_6__lessImmEEEERKT_S5_S5_T0_, symObjAddr: 0x2F00, symBinAddr: 0x1000036D8, symSize: 0x54 }
  - { offsetInCU: 0xC940, offset: 0xC940, size: 0x8, addend: 0x0, symName: __ZNSt3__120__throw_length_errorB7v160006EPKc, symObjAddr: 0x2FA4, symBinAddr: 0x10000377C, symSize: 0x64 }
  - { offsetInCU: 0xC968, offset: 0xC968, size: 0x8, addend: 0x0, symName: __ZNSt3__117__libcpp_allocateB7v160006Emm, symObjAddr: 0x3114, symBinAddr: 0x1000038EC, symSize: 0x28 }
  - { offsetInCU: 0xC9A5, offset: 0xC9A5, size: 0x8, addend: 0x0, symName: __ZNSt3__121__libcpp_operator_newB7v160006IJmEEEPvDpT_, symObjAddr: 0x313C, symBinAddr: 0x100003914, symSize: 0x24 }
  - { offsetInCU: 0xC9DE, offset: 0xC9DE, size: 0x8, addend: 0x0, symName: __ZNSt3__112__to_addressB7v160006IiEEPT_S2_, symObjAddr: 0x3258, symBinAddr: 0x100003A30, symSize: 0x14 }
  - { offsetInCU: 0xCA13, offset: 0xCA13, size: 0x8, addend: 0x0, symName: __ZNSt3__130__uninitialized_allocator_copyB7v160006INS_9allocatorIiEEPiS3_S3_EET2_RT_T0_T1_S4_, symObjAddr: 0x3308, symBinAddr: 0x100003AE0, symSize: 0xF4 }
  - { offsetInCU: 0xCAB1, offset: 0xCAB1, size: 0x8, addend: 0x0, symName: __ZNSt3__122__make_exception_guardB7v160006INS_29_AllocatorDestroyRangeReverseINS_9allocatorIiEEPiEEEENS_28__exception_guard_exceptionsIT_EES7_, symObjAddr: 0x346C, symBinAddr: 0x100003C44, symSize: 0x4C }
  - { offsetInCU: 0xCAE7, offset: 0xCAE7, size: 0x8, addend: 0x0, symName: __ZNSt3__119__allocator_destroyB7v160006INS_9allocatorIiEENS_16reverse_iteratorIPiEES5_EEvRT_T0_T1_, symObjAddr: 0x36F4, symBinAddr: 0x100003ECC, symSize: 0x70 }
  - { offsetInCU: 0xCB4A, offset: 0xCB4A, size: 0x8, addend: 0x0, symName: __ZNSt3__1neB7v160006IPiS1_EEbRKNS_16reverse_iteratorIT_EERKNS2_IT0_EE, symObjAddr: 0x3798, symBinAddr: 0x100003F70, symSize: 0x48 }
  - { offsetInCU: 0xCB96, offset: 0xCB96, size: 0x8, addend: 0x0, symName: __ZNSt3__112__to_addressB7v160006INS_16reverse_iteratorIPiEEvEENS_5decayIDTclsr19__to_address_helperIT_EE6__callclsr3stdE7declvalIRKS5_EEEEE4typeES7_, symObjAddr: 0x380C, symBinAddr: 0x100003FE4, symSize: 0x24 }
  - { offsetInCU: 0xCBF5, offset: 0xCBF5, size: 0x8, addend: 0x0, symName: __ZNSt3__118__debug_db_erase_cB7v160006INS_6vectorIiNS_9allocatorIiEEEEEEvPT_, symObjAddr: 0x3AEC, symBinAddr: 0x1000042C4, symSize: 0x10 }
  - { offsetInCU: 0xCC26, offset: 0xCC26, size: 0x8, addend: 0x0, symName: __ZNSt3__119__libcpp_deallocateB7v160006EPvmm, symObjAddr: 0x3C24, symBinAddr: 0x1000043FC, symSize: 0x30 }
  - { offsetInCU: 0xCC6E, offset: 0xCC6E, size: 0x8, addend: 0x0, symName: __ZNSt3__127__do_deallocate_handle_sizeB7v160006IJEEEvPvmDpT_, symObjAddr: 0x3C54, symBinAddr: 0x10000442C, symSize: 0x28 }
  - { offsetInCU: 0xCCAC, offset: 0xCCAC, size: 0x8, addend: 0x0, symName: __ZNSt3__124__libcpp_operator_deleteB7v160006IJPvEEEvDpT_, symObjAddr: 0x3C7C, symBinAddr: 0x100004454, symSize: 0x24 }
  - { offsetInCU: 0xCCE1, offset: 0xCCE1, size: 0x8, addend: 0x0, symName: __ZNSt3__13maxB7v160006ImEERKT_S3_S3_, symObjAddr: 0x42A4, symBinAddr: 0x100004A7C, symSize: 0x2C }
  - { offsetInCU: 0xCD24, offset: 0xCD24, size: 0x8, addend: 0x0, symName: __ZNSt3__13maxB7v160006ImNS_6__lessImmEEEERKT_S5_S5_T0_, symObjAddr: 0x42D0, symBinAddr: 0x100004AA8, symSize: 0x54 }
  - { offsetInCU: 0xCD7E, offset: 0xCD7E, size: 0x8, addend: 0x0, symName: __ZNSt3__142__uninitialized_allocator_move_if_noexceptB7v160006INS_9allocatorIiEENS_16reverse_iteratorIPiEES5_ivEET1_RT_T0_S9_S6_, symObjAddr: 0x4550, symBinAddr: 0x100004D28, symSize: 0x78 }
  - { offsetInCU: 0xCDFB, offset: 0xCDFB, size: 0x8, addend: 0x0, symName: __ZNSt3__14swapB7v160006IPiEENS_9enable_ifIXaasr21is_move_constructibleIT_EE5valuesr18is_move_assignableIS3_EE5valueEvE4typeERS3_S6_, symObjAddr: 0x45C8, symBinAddr: 0x100004DA0, symSize: 0x3C }
  - { offsetInCU: 0xCE4C, offset: 0xCE4C, size: 0x8, addend: 0x0, symName: __ZNSt3__125__debug_db_invalidate_allB7v160006INS_6vectorIiNS_9allocatorIiEEEEEEvPT_, symObjAddr: 0x4604, symBinAddr: 0x100004DDC, symSize: 0x10 }
  - { offsetInCU: 0xCE7D, offset: 0xCE7D, size: 0x8, addend: 0x0, symName: __ZNSt3__14moveB7v160006INS_16reverse_iteratorIPiEES3_EET0_T_S5_S4_, symObjAddr: 0x4614, symBinAddr: 0x100004DEC, symSize: 0x78 }
  - { offsetInCU: 0xCED7, offset: 0xCED7, size: 0x8, addend: 0x0, symName: __ZNSt3__16__moveB7v160006INS_17_ClassicAlgPolicyENS_16reverse_iteratorIPiEES4_S4_EENS_4pairIT0_T2_EES6_T1_S7_, symObjAddr: 0x468C, symBinAddr: 0x100004E64, symSize: 0x64 }
  - { offsetInCU: 0xCF43, offset: 0xCF43, size: 0x8, addend: 0x0, symName: __ZNSt3__123__dispatch_copy_or_moveB7v160006INS_17_ClassicAlgPolicyENS_11__move_loopIS1_EENS_14__move_trivialENS_16reverse_iteratorIPiEES7_S7_EENS_4pairIT2_T4_EES9_T3_SA_, symObjAddr: 0x46F0, symBinAddr: 0x100004EC8, symSize: 0x64 }
  - { offsetInCU: 0xCFC1, offset: 0xCFC1, size: 0x8, addend: 0x0, symName: __ZNSt3__121__unwrap_and_dispatchB7v160006INS_10__overloadINS_11__move_loopINS_17_ClassicAlgPolicyEEENS_14__move_trivialEEENS_16reverse_iteratorIPiEES9_S9_Li0EEENS_4pairIT0_T2_EESB_T1_SC_, symObjAddr: 0x4754, symBinAddr: 0x100004F2C, symSize: 0x12C }
  - { offsetInCU: 0xD051, offset: 0xD051, size: 0x8, addend: 0x0, symName: __ZNSt3__114__unwrap_rangeB7v160006INS_16reverse_iteratorIPiEES3_EENS_4pairIT0_S5_EET_S7_, symObjAddr: 0x4880, symBinAddr: 0x100005058, symSize: 0x84 }
  - { offsetInCU: 0xD1CC, offset: 0xD1CC, size: 0x8, addend: 0x0, symName: __ZNSt3__113__unwrap_iterB7v160006INS_16reverse_iteratorIPiEENS_18__unwrap_iter_implIS3_Lb0EEELi0EEEDTclsrT0_8__unwrapclsr3stdE7declvalIT_EEEES7_, symObjAddr: 0x49A4, symBinAddr: 0x10000517C, symSize: 0x44 }
  - { offsetInCU: 0xD210, offset: 0xD210, size: 0x8, addend: 0x0, symName: __ZNSt3__19make_pairB7v160006INS_16reverse_iteratorIPiEES3_EENS_4pairINS_18__unwrap_ref_decayIT_E4typeENS5_IT0_E4typeEEEOS6_OS9_, symObjAddr: 0x49E8, symBinAddr: 0x1000051C0, symSize: 0x38 }
  - { offsetInCU: 0xD25F, offset: 0xD25F, size: 0x8, addend: 0x0, symName: __ZNSt3__114__rewrap_rangeB7v160006INS_16reverse_iteratorIPiEES3_EET_S4_T0_, symObjAddr: 0x4A20, symBinAddr: 0x1000051F8, symSize: 0x5C }
  - { offsetInCU: 0xD2AB, offset: 0xD2AB, size: 0x8, addend: 0x0, symName: __ZNSt3__113__rewrap_iterB7v160006INS_16reverse_iteratorIPiEES3_NS_18__unwrap_iter_implIS3_Lb0EEEEET_S6_T0_, symObjAddr: 0x4A7C, symBinAddr: 0x100005254, symSize: 0x74 }
  - { offsetInCU: 0xD430, offset: 0xD430, size: 0x8, addend: 0x0, symName: __ZNSt3__115__debug_db_swapB7v160006INS_6vectorIiNS_9allocatorIiEEEEEEvPT_S6_, symObjAddr: 0x5830, symBinAddr: 0x100006008, symSize: 0x14 }
  - { offsetInCU: 0xD46F, offset: 0xD46F, size: 0x8, addend: 0x0, symName: __ZNSt3__18distanceB7v160006IPiEENS_15iterator_traitsIT_E15difference_typeES3_S3_, symObjAddr: 0x5C2C, symBinAddr: 0x100006404, symSize: 0x2C }
  - { offsetInCU: 0xD4B2, offset: 0xD4B2, size: 0x8, addend: 0x0, symName: __ZNSt3__14copyB7v160006IPiS1_EET0_T_S3_S2_, symObjAddr: 0x5CA8, symBinAddr: 0x100006480, symSize: 0x40 }
  - { offsetInCU: 0xD50C, offset: 0xD50C, size: 0x8, addend: 0x0, symName: __ZNSt3__110__distanceB7v160006IPiEENS_15iterator_traitsIT_E15difference_typeES3_S3_NS_26random_access_iterator_tagE, symObjAddr: 0x5CE8, symBinAddr: 0x1000064C0, symSize: 0x28 }
  - { offsetInCU: 0xD559, offset: 0xD559, size: 0x8, addend: 0x0, symName: __ZNSt3__121__convert_to_integralB7v160006Em, symObjAddr: 0x5D10, symBinAddr: 0x1000064E8, symSize: 0x14 }
  - { offsetInCU: 0xD585, offset: 0xD585, size: 0x8, addend: 0x0, symName: __ZNSt3__19__advanceB7v160006IPiEEvRT_NS_15iterator_traitsIS2_E15difference_typeENS_26random_access_iterator_tagE, symObjAddr: 0x5D24, symBinAddr: 0x1000064FC, symSize: 0x28 }
  - { offsetInCU: 0xD5CE, offset: 0xD5CE, size: 0x8, addend: 0x0, symName: __ZNSt3__16__copyB7v160006INS_17_ClassicAlgPolicyEPiS2_S2_EENS_4pairIT0_T2_EES4_T1_S5_, symObjAddr: 0x5D4C, symBinAddr: 0x100006524, symSize: 0x44 }
  - { offsetInCU: 0xD63A, offset: 0xD63A, size: 0x8, addend: 0x0, symName: __ZNSt3__123__dispatch_copy_or_moveB7v160006INS_17_ClassicAlgPolicyENS_11__copy_loopIS1_EENS_14__copy_trivialEPiS5_S5_EENS_4pairIT2_T4_EES7_T3_S8_, symObjAddr: 0x5D90, symBinAddr: 0x100006568, symSize: 0x44 }
  - { offsetInCU: 0xD6B8, offset: 0xD6B8, size: 0x8, addend: 0x0, symName: __ZNSt3__121__unwrap_and_dispatchB7v160006INS_10__overloadINS_11__copy_loopINS_17_ClassicAlgPolicyEEENS_14__copy_trivialEEEPiS7_S7_Li0EEENS_4pairIT0_T2_EES9_T1_SA_, symObjAddr: 0x5DD4, symBinAddr: 0x1000065AC, symSize: 0xB4 }
  - { offsetInCU: 0xD746, offset: 0xD746, size: 0x8, addend: 0x0, symName: __ZNSt3__114__unwrap_rangeB7v160006IPiS1_EENS_4pairIT0_S3_EET_S5_, symObjAddr: 0x5E88, symBinAddr: 0x100006660, symSize: 0x60 }
  - { offsetInCU: 0xD8DB, offset: 0xD8DB, size: 0x8, addend: 0x0, symName: __ZNSt3__113__unwrap_iterB7v160006IPiNS_18__unwrap_iter_implIS1_Lb1EEELi0EEEDTclsrT0_8__unwrapclsr3stdE7declvalIT_EEEES5_, symObjAddr: 0x5F30, symBinAddr: 0x100006708, symSize: 0x24 }
  - { offsetInCU: 0xD91F, offset: 0xD91F, size: 0x8, addend: 0x0, symName: __ZNSt3__19make_pairB7v160006IPiS1_EENS_4pairINS_18__unwrap_ref_decayIT_E4typeENS3_IT0_E4typeEEEOS4_OS7_, symObjAddr: 0x5F54, symBinAddr: 0x10000672C, symSize: 0x38 }
  - { offsetInCU: 0xD96E, offset: 0xD96E, size: 0x8, addend: 0x0, symName: __ZNSt3__114__rewrap_rangeB7v160006IPiS1_EET_S2_T0_, symObjAddr: 0x5F8C, symBinAddr: 0x100006764, symSize: 0x2C }
  - { offsetInCU: 0xD9BA, offset: 0xD9BA, size: 0x8, addend: 0x0, symName: __ZNSt3__113__rewrap_iterB7v160006IPiS1_NS_18__unwrap_iter_implIS1_Lb1EEEEET_S4_T0_, symObjAddr: 0x5FB8, symBinAddr: 0x100006790, symSize: 0x3C }
  - { offsetInCU: 0xDA0F, offset: 0xDA0F, size: 0x8, addend: 0x0, symName: __ZNSt3__119__copy_trivial_implB7v160006IiiEENS_4pairIPT_PT0_EES3_S3_S5_, symObjAddr: 0x5FF4, symBinAddr: 0x1000067CC, symSize: 0x84 }
  - { offsetInCU: 0xDA77, offset: 0xDA77, size: 0x8, addend: 0x0, symName: __ZNSt3__19make_pairB7v160006IRPiS1_EENS_4pairINS_18__unwrap_ref_decayIT_E4typeENS4_IT0_E4typeEEEOS5_OS8_, symObjAddr: 0x6078, symBinAddr: 0x100006850, symSize: 0x38 }
  - { offsetInCU: 0xDB19, offset: 0xDB19, size: 0x8, addend: 0x0, symName: __ZNSt3__1eqB7v160006IP6bignumEEbRKNS_11__wrap_iterIT_EES7_, symObjAddr: 0x6204, symBinAddr: 0x1000069DC, symSize: 0x48 }
  - { offsetInCU: 0xDB78, offset: 0xDB78, size: 0x8, addend: 0x0, symName: __ZNSt3__14fillB7v160006INS_11__wrap_iterIPiEEiEEvT_S4_RKT0_, symObjAddr: 0x6400, symBinAddr: 0x100006BD8, symSize: 0x44 }
  - { offsetInCU: 0xDBCE, offset: 0xDBCE, size: 0x8, addend: 0x0, symName: __ZNSt3__16__fillB7v160006INS_11__wrap_iterIPiEEiEEvT_S4_RKT0_NS_26random_access_iterator_tagE, symObjAddr: 0x64A4, symBinAddr: 0x100006C7C, symSize: 0x50 }
  - { offsetInCU: 0xDC2E, offset: 0xDC2E, size: 0x8, addend: 0x0, symName: __ZNSt3__16fill_nB7v160006INS_11__wrap_iterIPiEEliEET_S4_T0_RKT1_, symObjAddr: 0x64F4, symBinAddr: 0x100006CCC, symSize: 0x4C }
  - { offsetInCU: 0xDC91, offset: 0xDC91, size: 0x8, addend: 0x0, symName: __ZNSt3__1miB7v160006IPiS1_EEDTmicldtfp_4baseEcldtfp0_4baseEERKNS_11__wrap_iterIT_EERKNS3_IT0_EE, symObjAddr: 0x6540, symBinAddr: 0x100006D18, symSize: 0x48 }
  - { offsetInCU: 0xDCDD, offset: 0xDCDD, size: 0x8, addend: 0x0, symName: __ZNSt3__18__fill_nB7v160006INS_11__wrap_iterIPiEEliEET_S4_T0_RKT1_, symObjAddr: 0x6588, symBinAddr: 0x100006D60, symSize: 0x80 }
  - { offsetInCU: 0xDD40, offset: 0xDD40, size: 0x8, addend: 0x0, symName: __ZNSt3__121__convert_to_integralB7v160006El, symObjAddr: 0x6608, symBinAddr: 0x100006DE0, symSize: 0x14 }
  - { offsetInCU: 0xDD6C, offset: 0xDD6C, size: 0x8, addend: 0x0, symName: __ZNSt3__119__debug_db_insert_cB7v160006INS_12basic_stringIcNS_11char_traitsIcEENS_9allocatorIcEEEEEEvPT_, symObjAddr: 0x67D0, symBinAddr: 0x100006FA8, symSize: 0x10 }
  - { offsetInCU: 0xDD9D, offset: 0xDD9D, size: 0x8, addend: 0x0, symName: __ZNSt3__118__constexpr_strlenB7v160006EPKc, symObjAddr: 0x689C, symBinAddr: 0x100007074, symSize: 0x24 }
  - { offsetInCU: 0xDDC9, offset: 0xDDC9, size: 0x8, addend: 0x0, symName: __ZNSt3__112__to_addressB7v160006IKcEEPT_S3_, symObjAddr: 0x6988, symBinAddr: 0x100007160, symSize: 0x14 }
  - { offsetInCU: 0xDE31, offset: 0xDE31, size: 0x8, addend: 0x0, symName: __ZNSt3__116__pad_and_outputB7v160006IcNS_11char_traitsIcEEEENS_19ostreambuf_iteratorIT_T0_EES6_PKS4_S8_S8_RNS_8ios_baseES4_, symObjAddr: 0x6D28, symBinAddr: 0x100007500, symSize: 0x240 }
  - { offsetInCU: 0xDF00, offset: 0xDF00, size: 0x8, addend: 0x0, symName: __ZNSt3__19use_facetB7v160006INS_5ctypeIcEEEERKT_RKNS_6localeE, symObjAddr: 0x72BC, symBinAddr: 0x100007A94, symSize: 0x2C }
  - { offsetInCU: 0xE3CF, offset: 0xE3CF, size: 0x8, addend: 0x0, symName: __ZNSt3__119__debug_db_insert_cB7v160006INS_13unordered_setINS_12basic_stringIcNS_11char_traitsIcEENS_9allocatorIcEEEENS_4hashIS7_EENS_8equal_toIS7_EENS5_IS7_EEEEEEvPT_, symObjAddr: 0x73BC, symBinAddr: 0x100007B94, symSize: 0x10 }
  - { offsetInCU: 0xE400, offset: 0xE400, size: 0x8, addend: 0x0, symName: __ZNSt3__118__debug_db_erase_cB7v160006INS_12__hash_tableINS_12basic_stringIcNS_11char_traitsIcEENS_9allocatorIcEEEENS_4hashIS7_EENS_8equal_toIS7_EENS5_IS7_EEEEEEvPT_, symObjAddr: 0x7AE4, symBinAddr: 0x1000082BC, symSize: 0x10 }
  - { offsetInCU: 0xE46D, offset: 0xE46D, size: 0x8, addend: 0x0, symName: __ZNSt3__116__constrain_hashB7v160006Emm, symObjAddr: 0x85CC, symBinAddr: 0x100008DA4, symSize: 0x98 }
  - { offsetInCU: 0xE4A7, offset: 0xE4A7, size: 0x8, addend: 0x0, symName: __ZNSt3__116__is_hash_power2B7v160006Em, symObjAddr: 0x88C0, symBinAddr: 0x100009098, symSize: 0x50 }
  - { offsetInCU: 0xE4D3, offset: 0xE4D3, size: 0x8, addend: 0x0, symName: __ZNSt3__116__do_string_hashB7v160006IPKcEEmT_S3_, symObjAddr: 0x8ABC, symBinAddr: 0x100009294, symSize: 0x3C }
  - { offsetInCU: 0xE519, offset: 0xE519, size: 0x8, addend: 0x0, symName: __ZNSt3__110__loadwordB7v160006ImEET_PKv, symObjAddr: 0x94B0, symBinAddr: 0x100009C88, symSize: 0x20 }
  - { offsetInCU: 0xE55C, offset: 0xE55C, size: 0x8, addend: 0x0, symName: __ZNSt3__14swapB7v160006ImEENS_9enable_ifIXaasr21is_move_constructibleIT_EE5valuesr18is_move_assignableIS2_EE5valueEvE4typeERS2_S5_, symObjAddr: 0x966C, symBinAddr: 0x100009E44, symSize: 0x3C }
  - { offsetInCU: 0xE5AD, offset: 0xE5AD, size: 0x8, addend: 0x0, symName: __ZNSt3__110__loadwordB7v160006IjEET_PKv, symObjAddr: 0x96FC, symBinAddr: 0x100009ED4, symSize: 0x20 }
  - { offsetInCU: 0xE5F0, offset: 0xE5F0, size: 0x8, addend: 0x0, symName: __ZNSt3__1eqB7v160006INS_9allocatorIcEEEEbRKNS_12basic_stringIcNS_11char_traitsIcEET_EES9_, symObjAddr: 0x9994, symBinAddr: 0x10000A16C, symSize: 0x148 }
  - { offsetInCU: 0xE663, offset: 0xE663, size: 0x8, addend: 0x0, symName: __ZNSt3__118__constexpr_memcmpB7v160006IcEEiPKT_S3_m, symObjAddr: 0x9B48, symBinAddr: 0x10000A320, symSize: 0x34 }
  - { offsetInCU: 0xE6D2, offset: 0xE6D2, size: 0x8, addend: 0x0, symName: __ZNSt3__115__debug_db_swapB7v160006INS_12basic_stringIcNS_11char_traitsIcEENS_9allocatorIcEEEEEEvPT_S8_, symObjAddr: 0x9F90, symBinAddr: 0x10000A768, symSize: 0x14 }
  - { offsetInCU: 0xE711, offset: 0xE711, size: 0x8, addend: 0x0, symName: __ZNSt3__116__next_hash_pow2B7v160006Em, symObjAddr: 0xA4AC, symBinAddr: 0x10000AC84, symSize: 0x6C }
  - { offsetInCU: 0xE73D, offset: 0xE73D, size: 0x8, addend: 0x0, symName: __ZNSt3__125__debug_db_invalidate_allB7v160006INS_12__hash_tableINS_12basic_stringIcNS_11char_traitsIcEENS_9allocatorIcEEEENS_4hashIS7_EENS_8equal_toIS7_EENS5_IS7_EEEEEEvPT_, symObjAddr: 0xA518, symBinAddr: 0x10000ACF0, symSize: 0x10 }
  - { offsetInCU: 0xE76E, offset: 0xE76E, size: 0x8, addend: 0x0, symName: __ZNSt3__112__libcpp_clzB7v160006Em, symObjAddr: 0xA680, symBinAddr: 0x10000AE58, symSize: 0x1C }
  - { offsetInCU: 0xE79A, offset: 0xE79A, size: 0x8, addend: 0x0, symName: __ZNSt3__1eqB7v160006ERKNS_21__hash_const_iteratorIPNS_11__hash_nodeINS_12basic_stringIcNS_11char_traitsIcEENS_9allocatorIcEEEEPvEEEESD_, symObjAddr: 0xAC38, symBinAddr: 0x10000B410, symSize: 0x30 }
  - { offsetInCU: 0xE7D7, offset: 0xE7D7, size: 0x8, addend: 0x0, symName: __ZNSt3__119__debug_db_insert_cB7v160006INS_6vectorI6bignumNS_9allocatorIS2_EEEEEEvPT_, symObjAddr: 0xACFC, symBinAddr: 0x10000B4D4, symSize: 0x10 }
  - { offsetInCU: 0xE808, offset: 0xE808, size: 0x8, addend: 0x0, symName: __ZNSt3__118__debug_db_erase_cB7v160006INS_6vectorI6bignumNS_9allocatorIS2_EEEEEEvPT_, symObjAddr: 0xAFDC, symBinAddr: 0x10000B7B4, symSize: 0x10 }
  - { offsetInCU: 0xE839, offset: 0xE839, size: 0x8, addend: 0x0, symName: __ZNSt3__112__to_addressB7v160006I6bignumEEPT_S3_, symObjAddr: 0xB0F8, symBinAddr: 0x10000B8D0, symSize: 0x14 }
  - { offsetInCU: 0xE86E, offset: 0xE86E, size: 0x8, addend: 0x0, symName: __ZNSt3__119__allocate_at_leastB7v160006INS_9allocatorI6bignumEEEENS_19__allocation_resultINS_16allocator_traitsIT_E7pointerEEERS6_m, symObjAddr: 0xBA38, symBinAddr: 0x10000C210, symSize: 0x40 }
  - { offsetInCU: 0xE8B1, offset: 0xE8B1, size: 0x8, addend: 0x0, symName: __ZNSt3__142__uninitialized_allocator_move_if_noexceptB7v160006INS_9allocatorI6bignumEENS_16reverse_iteratorIPS2_EES6_S6_EET2_RT_T0_T1_S7_, symObjAddr: 0xBBF0, symBinAddr: 0x10000C3C8, symSize: 0x12C }
  - { offsetInCU: 0xE951, offset: 0xE951, size: 0x8, addend: 0x0, symName: __ZNSt3__14swapB7v160006IP6bignumEENS_9enable_ifIXaasr21is_move_constructibleIT_EE5valuesr18is_move_assignableIS4_EE5valueEvE4typeERS4_S7_, symObjAddr: 0xBD68, symBinAddr: 0x10000C540, symSize: 0x3C }
  - { offsetInCU: 0xE9A2, offset: 0xE9A2, size: 0x8, addend: 0x0, symName: __ZNSt3__125__debug_db_invalidate_allB7v160006INS_6vectorI6bignumNS_9allocatorIS2_EEEEEEvPT_, symObjAddr: 0xBE6C, symBinAddr: 0x10000C644, symSize: 0x10 }
  - { offsetInCU: 0xE9D3, offset: 0xE9D3, size: 0x8, addend: 0x0, symName: __ZNSt3__122__make_exception_guardB7v160006INS_29_AllocatorDestroyRangeReverseINS_9allocatorI6bignumEENS_16reverse_iteratorIPS3_EEEEEENS_28__exception_guard_exceptionsIT_EESA_, symObjAddr: 0xBE7C, symBinAddr: 0x10000C654, symSize: 0x4C }
  - { offsetInCU: 0xEA09, offset: 0xEA09, size: 0x8, addend: 0x0, symName: __ZNSt3__1neB7v160006IP6bignumS2_EEbRKNS_16reverse_iteratorIT_EERKNS3_IT0_EE, symObjAddr: 0xBF0C, symBinAddr: 0x10000C6E4, symSize: 0x48 }
  - { offsetInCU: 0xEA55, offset: 0xEA55, size: 0x8, addend: 0x0, symName: __ZNSt3__112__to_addressB7v160006INS_16reverse_iteratorIP6bignumEEvEENS_5decayIDTclsr19__to_address_helperIT_EE6__callclsr3stdE7declvalIRKS6_EEEEE4typeES8_, symObjAddr: 0xBF88, symBinAddr: 0x10000C760, symSize: 0x24 }
  - { offsetInCU: 0xEAB4, offset: 0xEAB4, size: 0x8, addend: 0x0, symName: __ZNSt3__119__allocator_destroyB7v160006INS_9allocatorI6bignumEENS_16reverse_iteratorINS4_IPS2_EEEES7_EEvRT_T0_T1_, symObjAddr: 0xC268, symBinAddr: 0x10000CA40, symSize: 0x70 }
  - { offsetInCU: 0xEB19, offset: 0xEB19, size: 0x8, addend: 0x0, symName: __ZNSt3__1neB7v160006INS_16reverse_iteratorIP6bignumEES4_EEbRKNS1_IT_EERKNS1_IT0_EE, symObjAddr: 0xC314, symBinAddr: 0x10000CAEC, symSize: 0x60 }
  - { offsetInCU: 0xEB65, offset: 0xEB65, size: 0x8, addend: 0x0, symName: __ZNSt3__112__to_addressB7v160006INS_16reverse_iteratorINS1_IP6bignumEEEEvEENS_5decayIDTclsr19__to_address_helperIT_EE6__callclsr3stdE7declvalIRKS7_EEEEE4typeES9_, symObjAddr: 0xC374, symBinAddr: 0x10000CB4C, symSize: 0x24 }
  - { offsetInCU: 0xEBC4, offset: 0xEBC4, size: 0x8, addend: 0x0, symName: __ZNSt3__14sortB7v160006INS_11__wrap_iterIP6bignumEENS_6__lessIS2_S2_EEEEvT_S7_T0_, symObjAddr: 0xC6DC, symBinAddr: 0x10000CEB4, symSize: 0x40 }
  - { offsetInCU: 0xEC1E, offset: 0xEC1E, size: 0x8, addend: 0x0, symName: __ZNSt3__111__sort_implB7v160006INS_17_ClassicAlgPolicyENS_11__wrap_iterIP6bignumEENS_6__lessIS3_S3_EEEEvT0_S8_RT1_, symObjAddr: 0xC71C, symBinAddr: 0x10000CEF4, symSize: 0x84 }
  - { offsetInCU: 0xECC5, offset: 0xECC5, size: 0x8, addend: 0x0, symName: __ZNSt3__123__debug_randomize_rangeB7v160006INS_17_ClassicAlgPolicyENS_11__wrap_iterIP6bignumEES5_EEvT0_T1_, symObjAddr: 0xC7A0, symBinAddr: 0x10000CF78, symSize: 0x14 }
  - { offsetInCU: 0xED16, offset: 0xED16, size: 0x8, addend: 0x0, symName: __ZNSt3__16__sortIRNS_6__lessI6bignumS2_EEPS2_EEvT0_S6_T_, symObjAddr: 0xC7B4, symBinAddr: 0x10000CF8C, symSize: 0x68 }
  - { offsetInCU: 0xEDA6, offset: 0xEDA6, size: 0x8, addend: 0x0, symName: __ZNSt3__113__unwrap_iterB7v160006INS_11__wrap_iterIP6bignumEENS_18__unwrap_iter_implIS4_Lb1EEELi0EEEDTclsrT0_8__unwrapclsr3stdE7declvalIT_EEEES8_, symObjAddr: 0xC81C, symBinAddr: 0x10000CFF4, symSize: 0x2C }
  - { offsetInCU: 0xEDEA, offset: 0xEDEA, size: 0x8, addend: 0x0, symName: __ZNSt3__17__log2iB7v160006IlEET_S1_, symObjAddr: 0xC848, symBinAddr: 0x10000D020, symSize: 0x54 }
  - { offsetInCU: 0xEE8F, offset: 0xEE8F, size: 0x8, addend: 0x0, symName: __ZNSt3__124__sort3_maybe_branchlessB7v160006INS_17_ClassicAlgPolicyERNS_6__lessI6bignumS3_EEPS3_EENS_9enable_ifIXntsr21__use_branchless_sortIT0_T1_EE5valueEvE4typeES9_S9_S9_S8_, symObjAddr: 0xD000, symBinAddr: 0x10000D7D8, symSize: 0x3C }
  - { offsetInCU: 0xEF00, offset: 0xEF00, size: 0x8, addend: 0x0, symName: __ZNSt3__124__sort4_maybe_branchlessB7v160006INS_17_ClassicAlgPolicyERNS_6__lessI6bignumS3_EEPS3_EENS_9enable_ifIXntsr21__use_branchless_sortIT0_T1_EE5valueEvE4typeES9_S9_S9_S9_S8_, symObjAddr: 0xD03C, symBinAddr: 0x10000D814, symSize: 0x44 }
  - { offsetInCU: 0xEF85, offset: 0xEF85, size: 0x8, addend: 0x0, symName: __ZNSt3__124__sort5_maybe_branchlessB7v160006INS_17_ClassicAlgPolicyERNS_6__lessI6bignumS3_EEPS3_EENS_9enable_ifIXntsr21__use_branchless_sortIT0_T1_EE5valueEvE4typeES9_S9_S9_S9_S9_S8_, symObjAddr: 0xD080, symBinAddr: 0x10000D858, symSize: 0x4C }
  - { offsetInCU: 0xF019, offset: 0xF019, size: 0x8, addend: 0x0, symName: __ZNSt3__114__partial_sortB7v160006INS_17_ClassicAlgPolicyERNS_6__lessI6bignumS3_EEPS3_S6_EET1_S7_S7_T2_RT0_, symObjAddr: 0xD248, symBinAddr: 0x10000DA20, symSize: 0x94 }
  - { offsetInCU: 0xF0A1, offset: 0xF0A1, size: 0x8, addend: 0x0, symName: __ZNSt3__119__sort5_wrap_policyB7v160006INS_17_ClassicAlgPolicyERNS_6__lessI6bignumS3_EEPS3_EEjT1_S7_S7_S7_S7_T0_, symObjAddr: 0xD2DC, symBinAddr: 0x10000DAB4, symSize: 0x54 }
  - { offsetInCU: 0xF147, offset: 0xF147, size: 0x8, addend: 0x0, symName: __ZNSt3__17__sort3B7v160006INS_17_ClassicAlgPolicyERNS_6__lessI6bignumS3_EEPS3_EEjT1_S7_S7_T0_, symObjAddr: 0xD330, symBinAddr: 0x10000DB08, symSize: 0x144 }
  - { offsetInCU: 0xF1C6, offset: 0xF1C6, size: 0x8, addend: 0x0, symName: __ZNSt3__19iter_swapB7v160006IP6bignumS2_EEvT_T0_, symObjAddr: 0xD7F8, symBinAddr: 0x10000DFD0, symSize: 0x2C }
  - { offsetInCU: 0xF20E, offset: 0xF20E, size: 0x8, addend: 0x0, symName: __ZNSt3__14swapB7v160006I6bignumEENS_9enable_ifIXaasr21is_move_constructibleIT_EE5valuesr18is_move_assignableIS3_EE5valueEvE4typeERS3_S6_, symObjAddr: 0xD824, symBinAddr: 0x10000DFFC, symSize: 0x50 }
  - { offsetInCU: 0xF25F, offset: 0xF25F, size: 0x8, addend: 0x0, symName: __ZNSt3__17__sort4B7v160006INS_17_ClassicAlgPolicyERNS_6__lessI6bignumS3_EEPS3_EEjT1_S7_S7_S7_T0_, symObjAddr: 0xD874, symBinAddr: 0x10000E04C, symSize: 0xE4 }
  - { offsetInCU: 0xF310, offset: 0xF310, size: 0x8, addend: 0x0, symName: __ZNSt3__123__debug_randomize_rangeB7v160006INS_17_ClassicAlgPolicyEP6bignumS3_EEvT0_T1_, symObjAddr: 0xD99C, symBinAddr: 0x10000E174, symSize: 0x14 }
  - { offsetInCU: 0xF361, offset: 0xF361, size: 0x8, addend: 0x0, symName: __ZNSt3__119__partial_sort_implB7v160006INS_17_ClassicAlgPolicyERNS_6__lessI6bignumS3_EEPS3_S6_EET1_S7_S7_T2_OT0_, symObjAddr: 0xD9B0, symBinAddr: 0x10000E188, symSize: 0x110 }
  - { offsetInCU: 0xF3F7, offset: 0xF3F7, size: 0x8, addend: 0x0, symName: __ZNSt3__111__make_heapB7v160006INS_17_ClassicAlgPolicyERNS_6__lessI6bignumS3_EEPS3_EEvT1_S7_OT0_, symObjAddr: 0xDAC0, symBinAddr: 0x10000E298, symSize: 0xC0 }
  - { offsetInCU: 0xF499, offset: 0xF499, size: 0x8, addend: 0x0, symName: __ZNSt3__111__sort_heapB7v160006INS_17_ClassicAlgPolicyERNS_6__lessI6bignumS3_EEPS3_EEvT1_S7_OT0_, symObjAddr: 0xDDD4, symBinAddr: 0x10000E5AC, symSize: 0x90 }
  - { offsetInCU: 0xF52D, offset: 0xF52D, size: 0x8, addend: 0x0, symName: __ZNSt3__110__pop_heapB7v160006INS_17_ClassicAlgPolicyENS_6__lessI6bignumS3_EEPS3_EEvT1_S6_RT0_NS_15iterator_traitsIS6_E15difference_typeE, symObjAddr: 0xDE64, symBinAddr: 0x10000E63C, symSize: 0x138 }
  - { offsetInCU: 0xF5D5, offset: 0xF5D5, size: 0x8, addend: 0x0, symName: __ZNSt3__19__sift_upB7v160006INS_17_ClassicAlgPolicyERNS_6__lessI6bignumS3_EEPS3_EEvT1_S7_OT0_NS_15iterator_traitsIS7_E15difference_typeE, symObjAddr: 0xE0A4, symBinAddr: 0x10000E87C, symSize: 0x164 }
  - { offsetInCU: 0xF675, offset: 0xF675, size: 0x8, addend: 0x0, symName: __ZNSt3__17__sort5IRNS_6__lessI6bignumS2_EEPS2_EEjT0_S6_S6_S6_S6_T_, symObjAddr: 0xE208, symBinAddr: 0x10000E9E0, symSize: 0x12C }
  - { offsetInCU: 0xF773, offset: 0xF773, size: 0x8, addend: 0x0, symName: __ZNSt3__112__to_addressB7v160006INS_11__wrap_iterIP6bignumEEvEENS_5decayIDTclsr19__to_address_helperIT_EE6__callclsr3stdE7declvalIRKS6_EEEEE4typeES8_, symObjAddr: 0xE35C, symBinAddr: 0x10000EB34, symSize: 0x24 }
  - { offsetInCU: 0xFC90, offset: 0xFC90, size: 0x8, addend: 0x0, symName: __ZSt28__throw_bad_array_new_lengthB7v160006v, symObjAddr: 0x30E0, symBinAddr: 0x1000038B8, symSize: 0x34 }
  - { offsetInCU: 0x10368, offset: 0x10368, size: 0x8, addend: 0x0, symName: __ZNSt3__16vectorIiNS_9allocatorIiEEE26__swap_out_circular_bufferERNS_14__split_bufferIiRS2_EE, symObjAddr: 0x4160, symBinAddr: 0x100004938, symSize: 0x118 }
  - { offsetInCU: 0x10412, offset: 0x10412, size: 0x8, addend: 0x0, symName: __ZNKSt3__16chrono15__duration_castINS0_8durationIxNS_5ratioILl1ELl1000000000EEEEENS2_IxNS3_ILl1ELl1000000EEEEENS3_ILl1ELl1000EEELb1ELb0EEclB7v160006ERKS5_, symObjAddr: 0x6264, symBinAddr: 0x100006A3C, symSize: 0x48 }
  - { offsetInCU: 0x10B19, offset: 0x10B19, size: 0x8, addend: 0x0, symName: __ZNSt3__16vectorI6bignumNS_9allocatorIS1_EEE26__swap_out_circular_bufferERNS_14__split_bufferIS1_RS3_EE, symObjAddr: 0xB6C0, symBinAddr: 0x10000BE98, symSize: 0x118 }
  - { offsetInCU: 0x12D8C, offset: 0x12D8C, size: 0x8, addend: 0x0, symName: __Z4half6bignum, symObjAddr: 0x0, symBinAddr: 0x1000007D8, symSize: 0x150 }
  - { offsetInCU: 0x12E0F, offset: 0x12E0F, size: 0x8, addend: 0x0, symName: __ZN6bignumC1ERKS_, symObjAddr: 0x150, symBinAddr: 0x100000928, symSize: 0x34 }
  - { offsetInCU: 0x12E44, offset: 0x12E44, size: 0x8, addend: 0x0, symName: __ZNKSt3__16vectorIiNS_9allocatorIiEEE4sizeB7v160006Ev, symObjAddr: 0x184, symBinAddr: 0x10000095C, symSize: 0x28 }
  - { offsetInCU: 0x12E6A, offset: 0x12E6A, size: 0x8, addend: 0x0, symName: __ZNSt3__16vectorIiNS_9allocatorIiEEEixB7v160006Em, symObjAddr: 0x1AC, symBinAddr: 0x100000984, symSize: 0x24 }
  - { offsetInCU: 0x12EA1, offset: 0x12EA1, size: 0x8, addend: 0x0, symName: __ZN6bignum6shrinkEv, symObjAddr: 0x1D0, symBinAddr: 0x1000009A8, symSize: 0xA0 }
  - { offsetInCU: 0x12EC7, offset: 0x12EC7, size: 0x8, addend: 0x0, symName: __ZN6bignumD1Ev, symObjAddr: 0x270, symBinAddr: 0x100000A48, symSize: 0x2C }
  - { offsetInCU: 0x12EF2, offset: 0x12EF2, size: 0x8, addend: 0x0, symName: __Z7isPower6bignumi, symObjAddr: 0x29C, symBinAddr: 0x100000A74, symSize: 0x31C }
  - { offsetInCU: 0x12F60, offset: 0x12F60, size: 0x8, addend: 0x0, symName: __ZN6bignumC1Ei, symObjAddr: 0x5B8, symBinAddr: 0x100000D90, symSize: 0x34 }
  - { offsetInCU: 0x12F98, offset: 0x12F98, size: 0x8, addend: 0x0, symName: __ZNK6bignumleERKS_, symObjAddr: 0x5EC, symBinAddr: 0x100000DC4, symSize: 0x5C }
  - { offsetInCU: 0x12FCC, offset: 0x12FCC, size: 0x8, addend: 0x0, symName: __ZNK6bignumplERKS_, symObjAddr: 0x648, symBinAddr: 0x100000E20, symSize: 0x254 }
  - { offsetInCU: 0x13047, offset: 0x13047, size: 0x8, addend: 0x0, symName: __ZNK6bignum3powEi, symObjAddr: 0x89C, symBinAddr: 0x100001074, symSize: 0x168 }
  - { offsetInCU: 0x13098, offset: 0x13098, size: 0x8, addend: 0x0, symName: __ZNK6bignumgtERKS_, symObjAddr: 0xA04, symBinAddr: 0x1000011DC, symSize: 0x5C }
  - { offsetInCU: 0x130CC, offset: 0x130CC, size: 0x8, addend: 0x0, symName: __ZNK6bignummiERKS_, symObjAddr: 0xA60, symBinAddr: 0x100001238, symSize: 0x270 }
  - { offsetInCU: 0x1314C, offset: 0x1314C, size: 0x8, addend: 0x0, symName: __ZN6bignumaSEOS_, symObjAddr: 0xCD0, symBinAddr: 0x1000014A8, symSize: 0x34 }
  - { offsetInCU: 0x1317D, offset: 0x1317D, size: 0x8, addend: 0x0, symName: __ZNK6bignumltERKS_, symObjAddr: 0xD04, symBinAddr: 0x1000014DC, symSize: 0x154 }
  - { offsetInCU: 0x131CC, offset: 0x131CC, size: 0x8, addend: 0x0, symName: __Z8toString6bignum, symObjAddr: 0xE58, symBinAddr: 0x100001630, symSize: 0x124 }
  - { offsetInCU: 0x1322A, offset: 0x1322A, size: 0x8, addend: 0x0, symName: __ZNSt3__112basic_stringIcNS_11char_traitsIcEENS_9allocatorIcEEEC1B7v160006IDnEEPKc, symObjAddr: 0xF7C, symBinAddr: 0x100001754, symSize: 0x34 }
  - { offsetInCU: 0x13268, offset: 0x13268, size: 0x8, addend: 0x0, symName: __ZNSt3__112basic_stringIcNS_11char_traitsIcEENS_9allocatorIcEEEpLB7v160006ERKS5_, symObjAddr: 0xFB0, symBinAddr: 0x100001788, symSize: 0x2C }
  - { offsetInCU: 0x1329C, offset: 0x1329C, size: 0x8, addend: 0x0, symName: __Z3mod6bignumS_, symObjAddr: 0xFDC, symBinAddr: 0x1000017B4, symSize: 0xA8 }
  - { offsetInCU: 0x132D9, offset: 0x132D9, size: 0x8, addend: 0x0, symName: __ZN6bignumC1EOS_, symObjAddr: 0x1084, symBinAddr: 0x10000185C, symSize: 0x34 }
  - { offsetInCU: 0x1330E, offset: 0x1330E, size: 0x8, addend: 0x0, symName: __ZNK6bignumgeERKS_, symObjAddr: 0x10B8, symBinAddr: 0x100001890, symSize: 0x5C }
  - { offsetInCU: 0x13341, offset: 0x13341, size: 0x8, addend: 0x0, symName: __Z3gcd6bignumS_, symObjAddr: 0x1114, symBinAddr: 0x1000018EC, symSize: 0x150 }
  - { offsetInCU: 0x13393, offset: 0x13393, size: 0x8, addend: 0x0, symName: __ZNK6bignumneERKS_, symObjAddr: 0x1264, symBinAddr: 0x100001A3C, symSize: 0x34 }
  - { offsetInCU: 0x133C7, offset: 0x133C7, size: 0x8, addend: 0x0, symName: __ZN6bignumaSERKS_, symObjAddr: 0x1298, symBinAddr: 0x100001A70, symSize: 0x34 }
  - { offsetInCU: 0x133F7, offset: 0x133F7, size: 0x8, addend: 0x0, symName: __ZlsRNSt3__113basic_ostreamIcNS_11char_traitsIcEEEERK6bignum, symObjAddr: 0x12CC, symBinAddr: 0x100001AA4, symSize: 0xA8 }
  - { offsetInCU: 0x13431, offset: 0x13431, size: 0x8, addend: 0x0, symName: __Z7isPrimei, symObjAddr: 0x13C0, symBinAddr: 0x100001B98, symSize: 0xCC }
  - { offsetInCU: 0x13479, offset: 0x13479, size: 0x8, addend: 0x0, symName: __Z6hasSumRNSt3__16vectorI6bignumNS_9allocatorIS1_EEEE, symObjAddr: 0x148C, symBinAddr: 0x100001C64, symSize: 0x5F8 }
  - { offsetInCU: 0x13584, offset: 0x13584, size: 0x8, addend: 0x0, symName: __ZNKSt3__16vectorI6bignumNS_9allocatorIS1_EEE4sizeB7v160006Ev, symObjAddr: 0x1A84, symBinAddr: 0x10000225C, symSize: 0x28 }
  - { offsetInCU: 0x13618, offset: 0x13618, size: 0x8, addend: 0x0, symName: __ZNSt3__113unordered_setINS_12basic_stringIcNS_11char_traitsIcEENS_9allocatorIcEEEENS_4hashIS6_EENS_8equal_toIS6_EENS4_IS6_EEEC1B7v160006Ev, symObjAddr: 0x1AAC, symBinAddr: 0x100002284, symSize: 0x2C }
  - { offsetInCU: 0x13642, offset: 0x13642, size: 0x8, addend: 0x0, symName: __ZNSt3__16vectorI6bignumNS_9allocatorIS1_EEE5beginB7v160006Ev, symObjAddr: 0x1AD8, symBinAddr: 0x1000022B0, symSize: 0x30 }
  - { offsetInCU: 0x1366A, offset: 0x1366A, size: 0x8, addend: 0x0, symName: __ZNSt3__16vectorI6bignumNS_9allocatorIS1_EEE3endB7v160006Ev, symObjAddr: 0x1B08, symBinAddr: 0x1000022E0, symSize: 0x30 }
  - { offsetInCU: 0x13692, offset: 0x13692, size: 0x8, addend: 0x0, symName: __ZNKSt3__111__wrap_iterIP6bignumEdeB7v160006Ev, symObjAddr: 0x1B6C, symBinAddr: 0x100002344, symSize: 0x18 }
  - { offsetInCU: 0x136BD, offset: 0x136BD, size: 0x8, addend: 0x0, symName: __ZNSt3__113unordered_setINS_12basic_stringIcNS_11char_traitsIcEENS_9allocatorIcEEEENS_4hashIS6_EENS_8equal_toIS6_EENS4_IS6_EEE7emplaceB7v160006IJS6_EEENS_4pairINS_21__hash_const_iteratorIPNS_11__hash_nodeIS6_PvEEEEbEEDpOT_, symObjAddr: 0x1B84, symBinAddr: 0x10000235C, symSize: 0x4C }
  - { offsetInCU: 0x136FD, offset: 0x136FD, size: 0x8, addend: 0x0, symName: __ZNSt3__111__wrap_iterIP6bignumEppB7v160006Ev, symObjAddr: 0x1BD0, symBinAddr: 0x1000023A8, symSize: 0x20 }
  - { offsetInCU: 0x13723, offset: 0x13723, size: 0x8, addend: 0x0, symName: __ZNKSt3__16chrono8durationIxNS_5ratioILl1ELl1000000EEEE5countB7v160006Ev, symObjAddr: 0x1C78, symBinAddr: 0x100002450, symSize: 0x18 }
  - { offsetInCU: 0x13749, offset: 0x13749, size: 0x8, addend: 0x0, symName: __ZNSt3__113basic_ostreamIcNS_11char_traitsIcEEElsB7v160006EPFRNS_8ios_baseES5_E, symObjAddr: 0x1D18, symBinAddr: 0x1000024F0, symSize: 0x40 }
  - { offsetInCU: 0x1377D, offset: 0x1377D, size: 0x8, addend: 0x0, symName: __ZNSt3__113basic_ostreamIcNS_11char_traitsIcEEElsB7v160006EPFRS3_S4_E, symObjAddr: 0x1DB4, symBinAddr: 0x10000258C, symSize: 0x2C }
  - { offsetInCU: 0x137B1, offset: 0x137B1, size: 0x8, addend: 0x0, symName: __ZNSt3__16vectorI6bignumNS_9allocatorIS1_EEEixB7v160006Em, symObjAddr: 0x1E38, symBinAddr: 0x100002610, symSize: 0x2C }
  - { offsetInCU: 0x137E8, offset: 0x137E8, size: 0x8, addend: 0x0, symName: __ZNSt3__113unordered_setINS_12basic_stringIcNS_11char_traitsIcEENS_9allocatorIcEEEENS_4hashIS6_EENS_8equal_toIS6_EENS4_IS6_EEE4findB7v160006ERKS6_, symObjAddr: 0x1E98, symBinAddr: 0x100002670, symSize: 0x40 }
  - { offsetInCU: 0x1381D, offset: 0x1381D, size: 0x8, addend: 0x0, symName: __ZNSt3__113unordered_setINS_12basic_stringIcNS_11char_traitsIcEENS_9allocatorIcEEEENS_4hashIS6_EENS_8equal_toIS6_EENS4_IS6_EEE3endB7v160006Ev, symObjAddr: 0x1ED8, symBinAddr: 0x1000026B0, symSize: 0x38 }
  - { offsetInCU: 0x13843, offset: 0x13843, size: 0x8, addend: 0x0, symName: __ZNSt3__113unordered_setINS_12basic_stringIcNS_11char_traitsIcEENS_9allocatorIcEEEENS_4hashIS6_EENS_8equal_toIS6_EENS4_IS6_EEED1B7v160006Ev, symObjAddr: 0x1F10, symBinAddr: 0x1000026E8, symSize: 0x2C }
  - { offsetInCU: 0x1386D, offset: 0x1386D, size: 0x8, addend: 0x0, symName: _main, symObjAddr: 0x1F3C, symBinAddr: 0x100002714, symSize: 0x480 }
  - { offsetInCU: 0x1391D, offset: 0x1391D, size: 0x8, addend: 0x0, symName: __ZNSt3__16vectorI6bignumNS_9allocatorIS1_EEEC1B7v160006Ev, symObjAddr: 0x23BC, symBinAddr: 0x100002B94, symSize: 0x2C }
  - { offsetInCU: 0x13947, offset: 0x13947, size: 0x8, addend: 0x0, symName: __ZNSt3__16vectorI6bignumNS_9allocatorIS1_EEE9push_backB7v160006ERKS1_, symObjAddr: 0x23E8, symBinAddr: 0x100002BC0, symSize: 0x6C }
  - { offsetInCU: 0x1397D, offset: 0x1397D, size: 0x8, addend: 0x0, symName: __Z3logB7v160006IiENSt3__19enable_ifIXsr3std11is_integralIT_EE5valueEdE4typeES2_, symObjAddr: 0x2454, symBinAddr: 0x100002C2C, symSize: 0x30 }
  - { offsetInCU: 0x139B5, offset: 0x139B5, size: 0x8, addend: 0x0, symName: __ZNK6bignummlERKS_, symObjAddr: 0x2484, symBinAddr: 0x100002C5C, symSize: 0x2D0 }
  - { offsetInCU: 0x13A5C, offset: 0x13A5C, size: 0x8, addend: 0x0, symName: __ZNSt3__16vectorI6bignumNS_9allocatorIS1_EEED1B7v160006Ev, symObjAddr: 0x2790, symBinAddr: 0x100002F68, symSize: 0x2C }
  - { offsetInCU: 0x13A86, offset: 0x13A86, size: 0x8, addend: 0x0, symName: __ZN6bignumC2ERKS_, symObjAddr: 0x27BC, symBinAddr: 0x100002F94, symSize: 0x34 }
  - { offsetInCU: 0x13ABB, offset: 0x13ABB, size: 0x8, addend: 0x0, symName: __ZNSt3__16vectorIiNS_9allocatorIiEEEC1ERKS3_, symObjAddr: 0x27F0, symBinAddr: 0x100002FC8, symSize: 0x34 }
  - { offsetInCU: 0x13AF6, offset: 0x13AF6, size: 0x8, addend: 0x0, symName: __ZNSt3__16vectorIiNS_9allocatorIiEEEC2ERKS3_, symObjAddr: 0x2824, symBinAddr: 0x100002FFC, symSize: 0x114 }
  - { offsetInCU: 0x13B5F, offset: 0x13B5F, size: 0x8, addend: 0x0, symName: __ZNSt3__116allocator_traitsINS_9allocatorIiEEE37select_on_container_copy_constructionB7v160006IS2_vvEES2_RKS2_, symObjAddr: 0x2938, symBinAddr: 0x100003110, symSize: 0x10 }
  - { offsetInCU: 0x13B8E, offset: 0x13B8E, size: 0x8, addend: 0x0, symName: __ZNKSt3__16vectorIiNS_9allocatorIiEEE7__allocB7v160006Ev, symObjAddr: 0x2948, symBinAddr: 0x100003120, symSize: 0x28 }
  - { offsetInCU: 0x13BBE, offset: 0x13BBE, size: 0x8, addend: 0x0, symName: __ZNSt3__117__compressed_pairIPiNS_9allocatorIiEEEC1B7v160006IDnS3_EEOT_OT0_, symObjAddr: 0x2970, symBinAddr: 0x100003148, symSize: 0x3C }
  - { offsetInCU: 0x13C16, offset: 0x13C16, size: 0x8, addend: 0x0, symName: __ZNSt3__16vectorIiNS_9allocatorIiEEE16__destroy_vectorC1ERS3_, symObjAddr: 0x29EC, symBinAddr: 0x1000031C4, symSize: 0x34 }
  - { offsetInCU: 0x13C4F, offset: 0x13C4F, size: 0x8, addend: 0x0, symName: __ZNSt3__16vectorIiNS_9allocatorIiEEE11__vallocateB7v160006Em, symObjAddr: 0x2A30, symBinAddr: 0x100003208, symSize: 0xAC }
  - { offsetInCU: 0x13C93, offset: 0x13C93, size: 0x8, addend: 0x0, symName: __ZNSt3__16vectorIiNS_9allocatorIiEEE18__construct_at_endIPiLi0EEEvT_S6_m, symObjAddr: 0x2ADC, symBinAddr: 0x1000032B4, symSize: 0x8C }
  - { offsetInCU: 0x13D06, offset: 0x13D06, size: 0x8, addend: 0x0, symName: __ZNSt3__128__exception_guard_exceptionsINS_6vectorIiNS_9allocatorIiEEE16__destroy_vectorEE10__completeB7v160006Ev, symObjAddr: 0x2B68, symBinAddr: 0x100003340, symSize: 0x1C }
  - { offsetInCU: 0x13D2C, offset: 0x13D2C, size: 0x8, addend: 0x0, symName: __ZNSt3__128__exception_guard_exceptionsINS_6vectorIiNS_9allocatorIiEEE16__destroy_vectorEED1B7v160006Ev, symObjAddr: 0x2B84, symBinAddr: 0x10000335C, symSize: 0x2C }
  - { offsetInCU: 0x13D56, offset: 0x13D56, size: 0x8, addend: 0x0, symName: __ZNKSt3__117__compressed_pairIPiNS_9allocatorIiEEE6secondB7v160006Ev, symObjAddr: 0x2BB0, symBinAddr: 0x100003388, symSize: 0x24 }
  - { offsetInCU: 0x13D7C, offset: 0x13D7C, size: 0x8, addend: 0x0, symName: __ZNKSt3__122__compressed_pair_elemINS_9allocatorIiEELi1ELb1EE5__getB7v160006Ev, symObjAddr: 0x2BD4, symBinAddr: 0x1000033AC, symSize: 0x14 }
  - { offsetInCU: 0x13DA2, offset: 0x13DA2, size: 0x8, addend: 0x0, symName: __ZNSt3__117__compressed_pairIPiNS_9allocatorIiEEEC2B7v160006IDnS3_EEOT_OT0_, symObjAddr: 0x2BE8, symBinAddr: 0x1000033C0, symSize: 0x44 }
  - { offsetInCU: 0x13DFA, offset: 0x13DFA, size: 0x8, addend: 0x0, symName: __ZNSt3__122__compressed_pair_elemIPiLi0ELb0EEC2B7v160006IDnvEEOT_, symObjAddr: 0x2C2C, symBinAddr: 0x100003404, symSize: 0x1C }
  - { offsetInCU: 0x13E3C, offset: 0x13E3C, size: 0x8, addend: 0x0, symName: __ZNSt3__122__compressed_pair_elemINS_9allocatorIiEELi1ELb1EEC2B7v160006IS2_vEEOT_, symObjAddr: 0x2C48, symBinAddr: 0x100003420, symSize: 0x18 }
  - { offsetInCU: 0x13E7E, offset: 0x13E7E, size: 0x8, addend: 0x0, symName: __ZNSt3__128__exception_guard_exceptionsINS_6vectorIiNS_9allocatorIiEEE16__destroy_vectorEEC1B7v160006ES5_, symObjAddr: 0x2C60, symBinAddr: 0x100003438, symSize: 0x34 }
  - { offsetInCU: 0x13EB6, offset: 0x13EB6, size: 0x8, addend: 0x0, symName: __ZNSt3__128__exception_guard_exceptionsINS_6vectorIiNS_9allocatorIiEEE16__destroy_vectorEEC2B7v160006ES5_, symObjAddr: 0x2C94, symBinAddr: 0x10000346C, symSize: 0x24 }
  - { offsetInCU: 0x13EEE, offset: 0x13EEE, size: 0x8, addend: 0x0, symName: __ZNSt3__16vectorIiNS_9allocatorIiEEE16__destroy_vectorC2ERS3_, symObjAddr: 0x2CB8, symBinAddr: 0x100003490, symSize: 0x20 }
  - { offsetInCU: 0x13F27, offset: 0x13F27, size: 0x8, addend: 0x0, symName: __ZNKSt3__16vectorIiNS_9allocatorIiEEE8max_sizeEv, symObjAddr: 0x2CD8, symBinAddr: 0x1000034B0, symSize: 0x60 }
  - { offsetInCU: 0x13F4F, offset: 0x13F4F, size: 0x8, addend: 0x0, symName: __ZNKSt3__16vectorIiNS_9allocatorIiEEE20__throw_length_errorB7v160006Ev, symObjAddr: 0x2D38, symBinAddr: 0x100003510, symSize: 0x1C }
  - { offsetInCU: 0x13F75, offset: 0x13F75, size: 0x8, addend: 0x0, symName: __ZNSt3__16vectorIiNS_9allocatorIiEEE7__allocB7v160006Ev, symObjAddr: 0x2D94, symBinAddr: 0x10000356C, symSize: 0x28 }
  - { offsetInCU: 0x13F9B, offset: 0x13F9B, size: 0x8, addend: 0x0, symName: __ZNSt3__16vectorIiNS_9allocatorIiEEE9__end_capB7v160006Ev, symObjAddr: 0x2DBC, symBinAddr: 0x100003594, symSize: 0x28 }
  - { offsetInCU: 0x13FC1, offset: 0x13FC1, size: 0x8, addend: 0x0, symName: __ZNKSt3__16vectorIiNS_9allocatorIiEEE14__annotate_newB7v160006Em, symObjAddr: 0x2DE4, symBinAddr: 0x1000035BC, symSize: 0xAC }
  - { offsetInCU: 0x13FF6, offset: 0x13FF6, size: 0x8, addend: 0x0, symName: __ZNSt3__116allocator_traitsINS_9allocatorIiEEE8max_sizeB7v160006IS2_vEEmRKS2_, symObjAddr: 0x2EBC, symBinAddr: 0x100003694, symSize: 0x24 }
  - { offsetInCU: 0x14024, offset: 0x14024, size: 0x8, addend: 0x0, symName: __ZNSt3__114numeric_limitsIlE3maxB7v160006Ev, symObjAddr: 0x2EE0, symBinAddr: 0x1000036B8, symSize: 0x14 }
  - { offsetInCU: 0x14042, offset: 0x14042, size: 0x8, addend: 0x0, symName: __ZNKSt3__16__lessImmEclB7v160006ERKmS3_, symObjAddr: 0x2F54, symBinAddr: 0x10000372C, symSize: 0x34 }
  - { offsetInCU: 0x14084, offset: 0x14084, size: 0x8, addend: 0x0, symName: __ZNKSt3__19allocatorIiE8max_sizeB7v160006Ev, symObjAddr: 0x2F88, symBinAddr: 0x100003760, symSize: 0x14 }
  - { offsetInCU: 0x140AA, offset: 0x140AA, size: 0x8, addend: 0x0, symName: __ZNSt3__123__libcpp_numeric_limitsIlLb1EE3maxB7v160006Ev, symObjAddr: 0x2F9C, symBinAddr: 0x100003774, symSize: 0x8 }
  - { offsetInCU: 0x140BE, offset: 0x140BE, size: 0x8, addend: 0x0, symName: __ZNSt12length_errorC1B7v160006EPKc, symObjAddr: 0x3008, symBinAddr: 0x1000037E0, symSize: 0x34 }
  - { offsetInCU: 0x140F6, offset: 0x140F6, size: 0x8, addend: 0x0, symName: __ZNSt12length_errorC2B7v160006EPKc, symObjAddr: 0x303C, symBinAddr: 0x100003814, symSize: 0x4C }
  - { offsetInCU: 0x1412E, offset: 0x1412E, size: 0x8, addend: 0x0, symName: __ZNSt3__19allocatorIiE8allocateB7v160006Em, symObjAddr: 0x3088, symBinAddr: 0x100003860, symSize: 0x58 }
  - { offsetInCU: 0x14162, offset: 0x14162, size: 0x8, addend: 0x0, symName: __ZNSt3__117__compressed_pairIPiNS_9allocatorIiEEE6secondB7v160006Ev, symObjAddr: 0x3160, symBinAddr: 0x100003938, symSize: 0x24 }
  - { offsetInCU: 0x14188, offset: 0x14188, size: 0x8, addend: 0x0, symName: __ZNSt3__122__compressed_pair_elemINS_9allocatorIiEELi1ELb1EE5__getB7v160006Ev, symObjAddr: 0x3184, symBinAddr: 0x10000395C, symSize: 0x14 }
  - { offsetInCU: 0x141AE, offset: 0x141AE, size: 0x8, addend: 0x0, symName: __ZNSt3__117__compressed_pairIPiNS_9allocatorIiEEE5firstB7v160006Ev, symObjAddr: 0x3198, symBinAddr: 0x100003970, symSize: 0x24 }
  - { offsetInCU: 0x141D4, offset: 0x141D4, size: 0x8, addend: 0x0, symName: __ZNSt3__122__compressed_pair_elemIPiLi0ELb0EE5__getB7v160006Ev, symObjAddr: 0x31BC, symBinAddr: 0x100003994, symSize: 0x14 }
  - { offsetInCU: 0x141FA, offset: 0x141FA, size: 0x8, addend: 0x0, symName: __ZNKSt3__16vectorIiNS_9allocatorIiEEE31__annotate_contiguous_containerB7v160006EPKvS5_S5_S5_, symObjAddr: 0x31D0, symBinAddr: 0x1000039A8, symSize: 0x20 }
  - { offsetInCU: 0x1424C, offset: 0x1424C, size: 0x8, addend: 0x0, symName: __ZNKSt3__16vectorIiNS_9allocatorIiEEE4dataB7v160006Ev, symObjAddr: 0x31F0, symBinAddr: 0x1000039C8, symSize: 0x28 }
  - { offsetInCU: 0x14272, offset: 0x14272, size: 0x8, addend: 0x0, symName: __ZNKSt3__16vectorIiNS_9allocatorIiEEE8capacityB7v160006Ev, symObjAddr: 0x3218, symBinAddr: 0x1000039F0, symSize: 0x40 }
  - { offsetInCU: 0x14298, offset: 0x14298, size: 0x8, addend: 0x0, symName: __ZNKSt3__16vectorIiNS_9allocatorIiEEE9__end_capB7v160006Ev, symObjAddr: 0x326C, symBinAddr: 0x100003A44, symSize: 0x28 }
  - { offsetInCU: 0x142BE, offset: 0x142BE, size: 0x8, addend: 0x0, symName: __ZNKSt3__117__compressed_pairIPiNS_9allocatorIiEEE5firstB7v160006Ev, symObjAddr: 0x3294, symBinAddr: 0x100003A6C, symSize: 0x24 }
  - { offsetInCU: 0x142E4, offset: 0x142E4, size: 0x8, addend: 0x0, symName: __ZNKSt3__122__compressed_pair_elemIPiLi0ELb0EE5__getB7v160006Ev, symObjAddr: 0x32B8, symBinAddr: 0x100003A90, symSize: 0x14 }
  - { offsetInCU: 0x14323, offset: 0x14323, size: 0x8, addend: 0x0, symName: __ZNSt3__16vectorIiNS_9allocatorIiEEE21_ConstructTransactionC1B7v160006ERS3_m, symObjAddr: 0x32CC, symBinAddr: 0x100003AA4, symSize: 0x3C }
  - { offsetInCU: 0x1436B, offset: 0x1436B, size: 0x8, addend: 0x0, symName: __ZNSt3__16vectorIiNS_9allocatorIiEEE21_ConstructTransactionD1B7v160006Ev, symObjAddr: 0x33FC, symBinAddr: 0x100003BD4, symSize: 0x2C }
  - { offsetInCU: 0x14395, offset: 0x14395, size: 0x8, addend: 0x0, symName: __ZNSt3__16vectorIiNS_9allocatorIiEEE21_ConstructTransactionC2B7v160006ERS3_m, symObjAddr: 0x3428, symBinAddr: 0x100003C00, symSize: 0x44 }
  - { offsetInCU: 0x143DD, offset: 0x143DD, size: 0x8, addend: 0x0, symName: __ZNSt3__129_AllocatorDestroyRangeReverseINS_9allocatorIiEEPiEC1B7v160006ERS2_RS3_S6_, symObjAddr: 0x34B8, symBinAddr: 0x100003C90, symSize: 0x44 }
  - { offsetInCU: 0x14434, offset: 0x14434, size: 0x8, addend: 0x0, symName: __ZNSt3__116allocator_traitsINS_9allocatorIiEEE9constructB7v160006IiJRiEvEEvRS2_PT_DpOT0_, symObjAddr: 0x34FC, symBinAddr: 0x100003CD4, symSize: 0x34 }
  - { offsetInCU: 0x1448B, offset: 0x1448B, size: 0x8, addend: 0x0, symName: __ZNSt3__128__exception_guard_exceptionsINS_29_AllocatorDestroyRangeReverseINS_9allocatorIiEEPiEEE10__completeB7v160006Ev, symObjAddr: 0x3530, symBinAddr: 0x100003D08, symSize: 0x1C }
  - { offsetInCU: 0x144B1, offset: 0x144B1, size: 0x8, addend: 0x0, symName: __ZNSt3__128__exception_guard_exceptionsINS_29_AllocatorDestroyRangeReverseINS_9allocatorIiEEPiEEED1B7v160006Ev, symObjAddr: 0x354C, symBinAddr: 0x100003D24, symSize: 0x2C }
  - { offsetInCU: 0x144DB, offset: 0x144DB, size: 0x8, addend: 0x0, symName: __ZNSt3__128__exception_guard_exceptionsINS_29_AllocatorDestroyRangeReverseINS_9allocatorIiEEPiEEEC1B7v160006ES5_, symObjAddr: 0x3578, symBinAddr: 0x100003D50, symSize: 0x34 }
  - { offsetInCU: 0x14514, offset: 0x14514, size: 0x8, addend: 0x0, symName: __ZNSt3__128__exception_guard_exceptionsINS_29_AllocatorDestroyRangeReverseINS_9allocatorIiEEPiEEEC2B7v160006ES5_, symObjAddr: 0x35AC, symBinAddr: 0x100003D84, symSize: 0x30 }
  - { offsetInCU: 0x1454D, offset: 0x1454D, size: 0x8, addend: 0x0, symName: __ZNSt3__129_AllocatorDestroyRangeReverseINS_9allocatorIiEEPiEC2B7v160006ERS2_RS3_S6_, symObjAddr: 0x35DC, symBinAddr: 0x100003DB4, symSize: 0x38 }
  - { offsetInCU: 0x145A4, offset: 0x145A4, size: 0x8, addend: 0x0, symName: __ZNSt3__19allocatorIiE9constructB7v160006IiJRiEEEvPT_DpOT0_, symObjAddr: 0x3614, symBinAddr: 0x100003DEC, symSize: 0x28 }
  - { offsetInCU: 0x145FA, offset: 0x145FA, size: 0x8, addend: 0x0, symName: __ZNSt3__128__exception_guard_exceptionsINS_29_AllocatorDestroyRangeReverseINS_9allocatorIiEEPiEEED2B7v160006Ev, symObjAddr: 0x363C, symBinAddr: 0x100003E14, symSize: 0x50 }
  - { offsetInCU: 0x14624, offset: 0x14624, size: 0x8, addend: 0x0, symName: __ZNKSt3__129_AllocatorDestroyRangeReverseINS_9allocatorIiEEPiEclB7v160006Ev, symObjAddr: 0x368C, symBinAddr: 0x100003E64, symSize: 0x68 }
  - { offsetInCU: 0x1464A, offset: 0x1464A, size: 0x8, addend: 0x0, symName: __ZNSt3__116reverse_iteratorIPiEC1B7v160006ES1_, symObjAddr: 0x3764, symBinAddr: 0x100003F3C, symSize: 0x34 }
  - { offsetInCU: 0x14682, offset: 0x14682, size: 0x8, addend: 0x0, symName: __ZNSt3__116allocator_traitsINS_9allocatorIiEEE7destroyB7v160006IivEEvRS2_PT_, symObjAddr: 0x37E0, symBinAddr: 0x100003FB8, symSize: 0x2C }
  - { offsetInCU: 0x146BF, offset: 0x146BF, size: 0x8, addend: 0x0, symName: __ZNSt3__116reverse_iteratorIPiEppB7v160006Ev, symObjAddr: 0x3830, symBinAddr: 0x100004008, symSize: 0x20 }
  - { offsetInCU: 0x146E5, offset: 0x146E5, size: 0x8, addend: 0x0, symName: __ZNKSt3__116reverse_iteratorIPiE4baseB7v160006Ev, symObjAddr: 0x3850, symBinAddr: 0x100004028, symSize: 0x18 }
  - { offsetInCU: 0x1470B, offset: 0x1470B, size: 0x8, addend: 0x0, symName: __ZNSt3__19allocatorIiE7destroyB7v160006EPi, symObjAddr: 0x3868, symBinAddr: 0x100004040, symSize: 0x14 }
  - { offsetInCU: 0x14744, offset: 0x14744, size: 0x8, addend: 0x0, symName: __ZNSt3__119__to_address_helperINS_16reverse_iteratorIPiEEvE6__callB7v160006ERKS3_, symObjAddr: 0x387C, symBinAddr: 0x100004054, symSize: 0x38 }
  - { offsetInCU: 0x14767, offset: 0x14767, size: 0x8, addend: 0x0, symName: __ZNKSt3__116reverse_iteratorIPiEptB7v160006Ev, symObjAddr: 0x38B4, symBinAddr: 0x10000408C, symSize: 0x24 }
  - { offsetInCU: 0x1478D, offset: 0x1478D, size: 0x8, addend: 0x0, symName: __ZNKSt3__116reverse_iteratorIPiEdeB7v160006Ev, symObjAddr: 0x38D8, symBinAddr: 0x1000040B0, symSize: 0x28 }
  - { offsetInCU: 0x147C1, offset: 0x147C1, size: 0x8, addend: 0x0, symName: __ZNSt3__116reverse_iteratorIPiEC2B7v160006ES1_, symObjAddr: 0x3900, symBinAddr: 0x1000040D8, symSize: 0x28 }
  - { offsetInCU: 0x147F9, offset: 0x147F9, size: 0x8, addend: 0x0, symName: __ZNSt3__16vectorIiNS_9allocatorIiEEE21_ConstructTransactionD2B7v160006Ev, symObjAddr: 0x3928, symBinAddr: 0x100004100, symSize: 0x20 }
  - { offsetInCU: 0x14823, offset: 0x14823, size: 0x8, addend: 0x0, symName: __ZNSt3__128__exception_guard_exceptionsINS_6vectorIiNS_9allocatorIiEEE16__destroy_vectorEED2B7v160006Ev, symObjAddr: 0x3948, symBinAddr: 0x100004120, symSize: 0x50 }
  - { offsetInCU: 0x1484D, offset: 0x1484D, size: 0x8, addend: 0x0, symName: __ZNSt3__16vectorIiNS_9allocatorIiEEE16__destroy_vectorclB7v160006Ev, symObjAddr: 0x3998, symBinAddr: 0x100004170, symSize: 0x9C }
  - { offsetInCU: 0x14873, offset: 0x14873, size: 0x8, addend: 0x0, symName: __ZNKSt3__16vectorIiNS_9allocatorIiEEE17__annotate_deleteB7v160006Ev, symObjAddr: 0x3A34, symBinAddr: 0x10000420C, symSize: 0xB8 }
  - { offsetInCU: 0x14899, offset: 0x14899, size: 0x8, addend: 0x0, symName: __ZNSt3__16vectorIiNS_9allocatorIiEEE7__clearB7v160006Ev, symObjAddr: 0x3AFC, symBinAddr: 0x1000042D4, symSize: 0x28 }
  - { offsetInCU: 0x148BF, offset: 0x148BF, size: 0x8, addend: 0x0, symName: __ZNSt3__116allocator_traitsINS_9allocatorIiEEE10deallocateB7v160006ERS2_Pim, symObjAddr: 0x3B24, symBinAddr: 0x1000042FC, symSize: 0x34 }
  - { offsetInCU: 0x14901, offset: 0x14901, size: 0x8, addend: 0x0, symName: __ZNSt3__16vectorIiNS_9allocatorIiEEE22__base_destruct_at_endB7v160006EPi, symObjAddr: 0x3B58, symBinAddr: 0x100004330, symSize: 0x8C }
  - { offsetInCU: 0x14945, offset: 0x14945, size: 0x8, addend: 0x0, symName: __ZNSt3__19allocatorIiE10deallocateB7v160006EPim, symObjAddr: 0x3BE4, symBinAddr: 0x1000043BC, symSize: 0x40 }
  - { offsetInCU: 0x14987, offset: 0x14987, size: 0x8, addend: 0x0, symName: __ZNSt3__16vectorIiNS_9allocatorIiEEE4backB7v160006Ev, symObjAddr: 0x3CA0, symBinAddr: 0x100004478, symSize: 0x1C }
  - { offsetInCU: 0x149AD, offset: 0x149AD, size: 0x8, addend: 0x0, symName: __ZNSt3__16vectorIiNS_9allocatorIiEEE8pop_backEv, symObjAddr: 0x3CBC, symBinAddr: 0x100004494, symSize: 0x2C }
  - { offsetInCU: 0x149D5, offset: 0x149D5, size: 0x8, addend: 0x0, symName: __ZNKSt3__16vectorIiNS_9allocatorIiEEE5emptyB7v160006Ev, symObjAddr: 0x3CE8, symBinAddr: 0x1000044C0, symSize: 0x28 }
  - { offsetInCU: 0x149FB, offset: 0x149FB, size: 0x8, addend: 0x0, symName: __ZNSt3__16vectorIiNS_9allocatorIiEEE9push_backB7v160006EOi, symObjAddr: 0x3D10, symBinAddr: 0x1000044E8, symSize: 0x6C }
  - { offsetInCU: 0x14A32, offset: 0x14A32, size: 0x8, addend: 0x0, symName: __ZNSt3__16vectorIiNS_9allocatorIiEEE17__destruct_at_endB7v160006EPi, symObjAddr: 0x3D7C, symBinAddr: 0x100004554, symSize: 0x60 }
  - { offsetInCU: 0x14A76, offset: 0x14A76, size: 0x8, addend: 0x0, symName: __ZNSt3__16vectorIiNS_9allocatorIiEEE27__invalidate_iterators_pastB7v160006EPi, symObjAddr: 0x3DDC, symBinAddr: 0x1000045B4, symSize: 0x14 }
  - { offsetInCU: 0x14AAD, offset: 0x14AAD, size: 0x8, addend: 0x0, symName: __ZNKSt3__16vectorIiNS_9allocatorIiEEE17__annotate_shrinkB7v160006Em, symObjAddr: 0x3DF0, symBinAddr: 0x1000045C8, symSize: 0xB4 }
  - { offsetInCU: 0x14AE7, offset: 0x14AE7, size: 0x8, addend: 0x0, symName: __ZNSt3__16vectorIiNS_9allocatorIiEEE22__construct_one_at_endB7v160006IJiEEEvDpOT_, symObjAddr: 0x3EA4, symBinAddr: 0x10000467C, symSize: 0x90 }
  - { offsetInCU: 0x14B36, offset: 0x14B36, size: 0x8, addend: 0x0, symName: __ZNSt3__16vectorIiNS_9allocatorIiEEE21__push_back_slow_pathIiEEvOT_, symObjAddr: 0x3F34, symBinAddr: 0x10000470C, symSize: 0xD8 }
  - { offsetInCU: 0x14B94, offset: 0x14B94, size: 0x8, addend: 0x0, symName: __ZNSt3__116allocator_traitsINS_9allocatorIiEEE9constructB7v160006IiJiEvEEvRS2_PT_DpOT0_, symObjAddr: 0x400C, symBinAddr: 0x1000047E4, symSize: 0x34 }
  - { offsetInCU: 0x14BEB, offset: 0x14BEB, size: 0x8, addend: 0x0, symName: __ZNSt3__19allocatorIiE9constructB7v160006IiJiEEEvPT_DpOT0_, symObjAddr: 0x4040, symBinAddr: 0x100004818, symSize: 0x28 }
  - { offsetInCU: 0x14C41, offset: 0x14C41, size: 0x8, addend: 0x0, symName: __ZNKSt3__16vectorIiNS_9allocatorIiEEE11__recommendB7v160006Em, symObjAddr: 0x4068, symBinAddr: 0x100004840, symSize: 0xB4 }
  - { offsetInCU: 0x14C96, offset: 0x14C96, size: 0x8, addend: 0x0, symName: __ZNSt3__114__split_bufferIiRNS_9allocatorIiEEEC1EmmS3_, symObjAddr: 0x411C, symBinAddr: 0x1000048F4, symSize: 0x44 }
  - { offsetInCU: 0x14CEC, offset: 0x14CEC, size: 0x8, addend: 0x0, symName: __ZNSt3__114__split_bufferIiRNS_9allocatorIiEEED1Ev, symObjAddr: 0x4278, symBinAddr: 0x100004A50, symSize: 0x2C }
  - { offsetInCU: 0x14D18, offset: 0x14D18, size: 0x8, addend: 0x0, symName: __ZNSt3__114__split_bufferIiRNS_9allocatorIiEEEC2EmmS3_, symObjAddr: 0x4324, symBinAddr: 0x100004AFC, symSize: 0xD4 }
  - { offsetInCU: 0x14D8B, offset: 0x14D8B, size: 0x8, addend: 0x0, symName: __ZNSt3__117__compressed_pairIPiRNS_9allocatorIiEEEC1B7v160006IDnS4_EEOT_OT0_, symObjAddr: 0x43F8, symBinAddr: 0x100004BD0, symSize: 0x3C }
  - { offsetInCU: 0x14DE3, offset: 0x14DE3, size: 0x8, addend: 0x0, symName: __ZNSt3__114__split_bufferIiRNS_9allocatorIiEEE7__allocB7v160006Ev, symObjAddr: 0x4434, symBinAddr: 0x100004C0C, symSize: 0x28 }
  - { offsetInCU: 0x14E09, offset: 0x14E09, size: 0x8, addend: 0x0, symName: __ZNSt3__114__split_bufferIiRNS_9allocatorIiEEE9__end_capB7v160006Ev, symObjAddr: 0x445C, symBinAddr: 0x100004C34, symSize: 0x28 }
  - { offsetInCU: 0x14E2F, offset: 0x14E2F, size: 0x8, addend: 0x0, symName: __ZNSt3__117__compressed_pairIPiRNS_9allocatorIiEEEC2B7v160006IDnS4_EEOT_OT0_, symObjAddr: 0x4484, symBinAddr: 0x100004C5C, symSize: 0x48 }
  - { offsetInCU: 0x14E87, offset: 0x14E87, size: 0x8, addend: 0x0, symName: __ZNSt3__122__compressed_pair_elemIRNS_9allocatorIiEELi1ELb0EEC2B7v160006IS3_vEEOT_, symObjAddr: 0x44CC, symBinAddr: 0x100004CA4, symSize: 0x20 }
  - { offsetInCU: 0x14EC9, offset: 0x14EC9, size: 0x8, addend: 0x0, symName: __ZNSt3__117__compressed_pairIPiRNS_9allocatorIiEEE6secondB7v160006Ev, symObjAddr: 0x44EC, symBinAddr: 0x100004CC4, symSize: 0x28 }
  - { offsetInCU: 0x14EEF, offset: 0x14EEF, size: 0x8, addend: 0x0, symName: __ZNSt3__122__compressed_pair_elemIRNS_9allocatorIiEELi1ELb0EE5__getB7v160006Ev, symObjAddr: 0x4514, symBinAddr: 0x100004CEC, symSize: 0x18 }
  - { offsetInCU: 0x14F15, offset: 0x14F15, size: 0x8, addend: 0x0, symName: __ZNSt3__117__compressed_pairIPiRNS_9allocatorIiEEE5firstB7v160006Ev, symObjAddr: 0x452C, symBinAddr: 0x100004D04, symSize: 0x24 }
  - { offsetInCU: 0x14F5E, offset: 0x14F5E, size: 0x8, addend: 0x0, symName: __ZNKSt3__111__move_loopINS_17_ClassicAlgPolicyEEclB7v160006INS_16reverse_iteratorIPiEES6_S6_EENS_4pairIT_T1_EES8_T0_S9_, symObjAddr: 0x4904, symBinAddr: 0x1000050DC, symSize: 0xA0 }
  - { offsetInCU: 0x14FC9, offset: 0x14FC9, size: 0x8, addend: 0x0, symName: __ZNSt3__18_IterOpsINS_17_ClassicAlgPolicyEE11__iter_moveB7v160006IRNS_16reverse_iteratorIPiEEEENS_9enable_ifIXsr12is_referenceIDTdeclsr3stdE7declvalIRT_EEEEE5valueEDTclsr3stdE4movedeclsr3stdE7declvalISA_EEEEE4typeEOS9_, symObjAddr: 0x4AF0, symBinAddr: 0x1000052C8, symSize: 0x28 }
  - { offsetInCU: 0x14FF5, offset: 0x14FF5, size: 0x8, addend: 0x0, symName: __ZNSt3__18_IterOpsINS_17_ClassicAlgPolicyEE25__validate_iter_referenceB7v160006IRNS_16reverse_iteratorIPiEEEEvv, symObjAddr: 0x4B18, symBinAddr: 0x1000052F0, symSize: 0x4 }
  - { offsetInCU: 0x15013, offset: 0x15013, size: 0x8, addend: 0x0, symName: __ZNSt3__118__unwrap_iter_implINS_16reverse_iteratorIPiEELb0EE8__unwrapB7v160006ES3_, symObjAddr: 0x4B1C, symBinAddr: 0x1000052F4, symSize: 0x24 }
  - { offsetInCU: 0x1503B, offset: 0x1503B, size: 0x8, addend: 0x0, symName: __ZNSt3__14pairINS_16reverse_iteratorIPiEES3_EC1B7v160006IS3_S3_LPv0EEEOT_OT0_, symObjAddr: 0x4B40, symBinAddr: 0x100005318, symSize: 0x3C }
  - { offsetInCU: 0x15099, offset: 0x15099, size: 0x8, addend: 0x0, symName: __ZNSt3__14pairINS_16reverse_iteratorIPiEES3_EC2B7v160006IS3_S3_LPv0EEEOT_OT0_, symObjAddr: 0x4B7C, symBinAddr: 0x100005354, symSize: 0x34 }
  - { offsetInCU: 0x150F7, offset: 0x150F7, size: 0x8, addend: 0x0, symName: __ZNSt3__118__unwrap_iter_implINS_16reverse_iteratorIPiEELb0EE8__rewrapB7v160006ES3_S3_, symObjAddr: 0x4BB0, symBinAddr: 0x100005388, symSize: 0x2C }
  - { offsetInCU: 0x15124, offset: 0x15124, size: 0x8, addend: 0x0, symName: __ZNSt3__114__split_bufferIiRNS_9allocatorIiEEED2Ev, symObjAddr: 0x4BDC, symBinAddr: 0x1000053B4, symSize: 0x8C }
  - { offsetInCU: 0x15150, offset: 0x15150, size: 0x8, addend: 0x0, symName: __ZNSt3__114__split_bufferIiRNS_9allocatorIiEEE5clearB7v160006Ev, symObjAddr: 0x4C68, symBinAddr: 0x100005440, symSize: 0x28 }
  - { offsetInCU: 0x15176, offset: 0x15176, size: 0x8, addend: 0x0, symName: __ZNKSt3__114__split_bufferIiRNS_9allocatorIiEEE8capacityB7v160006Ev, symObjAddr: 0x4C90, symBinAddr: 0x100005468, symSize: 0x40 }
  - { offsetInCU: 0x1519C, offset: 0x1519C, size: 0x8, addend: 0x0, symName: __ZNSt3__114__split_bufferIiRNS_9allocatorIiEEE17__destruct_at_endB7v160006EPi, symObjAddr: 0x4CD0, symBinAddr: 0x1000054A8, symSize: 0x2C }
  - { offsetInCU: 0x151D0, offset: 0x151D0, size: 0x8, addend: 0x0, symName: __ZNSt3__114__split_bufferIiRNS_9allocatorIiEEE17__destruct_at_endB7v160006EPiNS_17integral_constantIbLb0EEE, symObjAddr: 0x4CFC, symBinAddr: 0x1000054D4, symSize: 0x80 }
  - { offsetInCU: 0x15210, offset: 0x15210, size: 0x8, addend: 0x0, symName: __ZNKSt3__114__split_bufferIiRNS_9allocatorIiEEE9__end_capB7v160006Ev, symObjAddr: 0x4D7C, symBinAddr: 0x100005554, symSize: 0x28 }
  - { offsetInCU: 0x15236, offset: 0x15236, size: 0x8, addend: 0x0, symName: __ZNKSt3__117__compressed_pairIPiRNS_9allocatorIiEEE5firstB7v160006Ev, symObjAddr: 0x4DA4, symBinAddr: 0x10000557C, symSize: 0x24 }
  - { offsetInCU: 0x1525C, offset: 0x1525C, size: 0x8, addend: 0x0, symName: __ZN6bignumD2Ev, symObjAddr: 0x4DC8, symBinAddr: 0x1000055A0, symSize: 0x2C }
  - { offsetInCU: 0x15288, offset: 0x15288, size: 0x8, addend: 0x0, symName: __ZNSt3__16vectorIiNS_9allocatorIiEEED1B7v160006Ev, symObjAddr: 0x4DF4, symBinAddr: 0x1000055CC, symSize: 0x2C }
  - { offsetInCU: 0x152B2, offset: 0x152B2, size: 0x8, addend: 0x0, symName: __ZNSt3__16vectorIiNS_9allocatorIiEEED2B7v160006Ev, symObjAddr: 0x4E20, symBinAddr: 0x1000055F8, symSize: 0x44 }
  - { offsetInCU: 0x152DC, offset: 0x152DC, size: 0x8, addend: 0x0, symName: __ZN6bignumC2Ei, symObjAddr: 0x4E64, symBinAddr: 0x10000563C, symSize: 0xD4 }
  - { offsetInCU: 0x15314, offset: 0x15314, size: 0x8, addend: 0x0, symName: __ZNSt3__16vectorIiNS_9allocatorIiEEEC1B7v160006Ev, symObjAddr: 0x4F38, symBinAddr: 0x100005710, symSize: 0x2C }
  - { offsetInCU: 0x1533E, offset: 0x1533E, size: 0x8, addend: 0x0, symName: __ZNSt3__16vectorIiNS_9allocatorIiEEEC2B7v160006Ev, symObjAddr: 0x4F64, symBinAddr: 0x10000573C, symSize: 0x54 }
  - { offsetInCU: 0x1536D, offset: 0x1536D, size: 0x8, addend: 0x0, symName: __ZNSt3__117__compressed_pairIPiNS_9allocatorIiEEEC1B7v160006IDnNS_18__default_init_tagEEEOT_OT0_, symObjAddr: 0x4FB8, symBinAddr: 0x100005790, symSize: 0x3C }
  - { offsetInCU: 0x153C5, offset: 0x153C5, size: 0x8, addend: 0x0, symName: __ZNSt3__117__compressed_pairIPiNS_9allocatorIiEEEC2B7v160006IDnNS_18__default_init_tagEEEOT_OT0_, symObjAddr: 0x4FF4, symBinAddr: 0x1000057CC, symSize: 0x40 }
  - { offsetInCU: 0x1541D, offset: 0x1541D, size: 0x8, addend: 0x0, symName: __ZNSt3__122__compressed_pair_elemINS_9allocatorIiEELi1ELb1EEC2B7v160006ENS_18__default_init_tagE, symObjAddr: 0x5034, symBinAddr: 0x10000580C, symSize: 0x2C }
  - { offsetInCU: 0x15451, offset: 0x15451, size: 0x8, addend: 0x0, symName: __ZNSt3__19allocatorIiEC2B7v160006Ev, symObjAddr: 0x5060, symBinAddr: 0x100005838, symSize: 0x2C }
  - { offsetInCU: 0x1547B, offset: 0x1547B, size: 0x8, addend: 0x0, symName: __ZNSt3__116__non_trivial_ifILb1ENS_9allocatorIiEEEC2B7v160006Ev, symObjAddr: 0x508C, symBinAddr: 0x100005864, symSize: 0x14 }
  - { offsetInCU: 0x154A5, offset: 0x154A5, size: 0x8, addend: 0x0, symName: __ZNK6bignumeqERKS_, symObjAddr: 0x50A0, symBinAddr: 0x100005878, symSize: 0x108 }
  - { offsetInCU: 0x154F5, offset: 0x154F5, size: 0x8, addend: 0x0, symName: __ZNKSt3__16vectorIiNS_9allocatorIiEEEixB7v160006Em, symObjAddr: 0x51A8, symBinAddr: 0x100005980, symSize: 0x24 }
  - { offsetInCU: 0x1552C, offset: 0x1552C, size: 0x8, addend: 0x0, symName: __ZN6bignumC1Ev, symObjAddr: 0x51CC, symBinAddr: 0x1000059A4, symSize: 0x2C }
  - { offsetInCU: 0x15556, offset: 0x15556, size: 0x8, addend: 0x0, symName: __ZNSt3__16vectorIiNS_9allocatorIiEEE6resizeEm, symObjAddr: 0x51F8, symBinAddr: 0x1000059D0, symSize: 0x94 }
  - { offsetInCU: 0x1559C, offset: 0x1559C, size: 0x8, addend: 0x0, symName: __ZN6bignumC2Ev, symObjAddr: 0x528C, symBinAddr: 0x100005A64, symSize: 0x74 }
  - { offsetInCU: 0x155C6, offset: 0x155C6, size: 0x8, addend: 0x0, symName: __ZNSt3__16vectorIiNS_9allocatorIiEEE8__appendEm, symObjAddr: 0x5300, symBinAddr: 0x100005AD8, symSize: 0x108 }
  - { offsetInCU: 0x15621, offset: 0x15621, size: 0x8, addend: 0x0, symName: __ZNSt3__16vectorIiNS_9allocatorIiEEE18__construct_at_endEm, symObjAddr: 0x5408, symBinAddr: 0x100005BE0, symSize: 0xC8 }
  - { offsetInCU: 0x15693, offset: 0x15693, size: 0x8, addend: 0x0, symName: __ZNSt3__114__split_bufferIiRNS_9allocatorIiEEE18__construct_at_endEm, symObjAddr: 0x54D0, symBinAddr: 0x100005CA8, symSize: 0xB4 }
  - { offsetInCU: 0x156D6, offset: 0x156D6, size: 0x8, addend: 0x0, symName: __ZNSt3__116allocator_traitsINS_9allocatorIiEEE9constructB7v160006IiJEvEEvRS2_PT_DpOT0_, symObjAddr: 0x5584, symBinAddr: 0x100005D5C, symSize: 0x2C }
  - { offsetInCU: 0x15718, offset: 0x15718, size: 0x8, addend: 0x0, symName: __ZNSt3__19allocatorIiE9constructB7v160006IiJEEEvPT_DpOT0_, symObjAddr: 0x55B0, symBinAddr: 0x100005D88, symSize: 0x1C }
  - { offsetInCU: 0x15764, offset: 0x15764, size: 0x8, addend: 0x0, symName: __ZNSt3__114__split_bufferIiRNS_9allocatorIiEEE21_ConstructTransactionC1B7v160006EPPim, symObjAddr: 0x55CC, symBinAddr: 0x100005DA4, symSize: 0x3C }
  - { offsetInCU: 0x157AA, offset: 0x157AA, size: 0x8, addend: 0x0, symName: __ZNSt3__114__split_bufferIiRNS_9allocatorIiEEE21_ConstructTransactionD1B7v160006Ev, symObjAddr: 0x5608, symBinAddr: 0x100005DE0, symSize: 0x2C }
  - { offsetInCU: 0x157D4, offset: 0x157D4, size: 0x8, addend: 0x0, symName: __ZNSt3__114__split_bufferIiRNS_9allocatorIiEEE21_ConstructTransactionC2B7v160006EPPim, symObjAddr: 0x5634, symBinAddr: 0x100005E0C, symSize: 0x44 }
  - { offsetInCU: 0x1581A, offset: 0x1581A, size: 0x8, addend: 0x0, symName: __ZNSt3__114__split_bufferIiRNS_9allocatorIiEEE21_ConstructTransactionD2B7v160006Ev, symObjAddr: 0x5678, symBinAddr: 0x100005E50, symSize: 0x20 }
  - { offsetInCU: 0x15844, offset: 0x15844, size: 0x8, addend: 0x0, symName: __ZNSt3__16vectorIiNS_9allocatorIiEEEaSB7v160006EOS3_, symObjAddr: 0x5698, symBinAddr: 0x100005E70, symSize: 0x34 }
  - { offsetInCU: 0x1587B, offset: 0x1587B, size: 0x8, addend: 0x0, symName: __ZNSt3__16vectorIiNS_9allocatorIiEEE13__move_assignERS3_NS_17integral_constantIbLb1EEE, symObjAddr: 0x56CC, symBinAddr: 0x100005EA4, symSize: 0xAC }
  - { offsetInCU: 0x158BD, offset: 0x158BD, size: 0x8, addend: 0x0, symName: __ZNSt3__16vectorIiNS_9allocatorIiEEE13__vdeallocateEv, symObjAddr: 0x5778, symBinAddr: 0x100005F50, symSize: 0x8C }
  - { offsetInCU: 0x158E5, offset: 0x158E5, size: 0x8, addend: 0x0, symName: __ZNSt3__16vectorIiNS_9allocatorIiEEE19__move_assign_allocB7v160006ERS3_, symObjAddr: 0x5804, symBinAddr: 0x100005FDC, symSize: 0x2C }
  - { offsetInCU: 0x1591A, offset: 0x1591A, size: 0x8, addend: 0x0, symName: __ZNSt3__16vectorIiNS_9allocatorIiEEE5clearB7v160006Ev, symObjAddr: 0x5844, symBinAddr: 0x10000601C, symSize: 0x4C }
  - { offsetInCU: 0x1594F, offset: 0x1594F, size: 0x8, addend: 0x0, symName: __ZNSt3__16vectorIiNS_9allocatorIiEEE19__move_assign_allocB7v160006ERS3_NS_17integral_constantIbLb1EEE, symObjAddr: 0x5890, symBinAddr: 0x100006068, symSize: 0x38 }
  - { offsetInCU: 0x1598F, offset: 0x1598F, size: 0x8, addend: 0x0, symName: __ZN6bignumC2EOS_, symObjAddr: 0x58C8, symBinAddr: 0x1000060A0, symSize: 0x34 }
  - { offsetInCU: 0x159C4, offset: 0x159C4, size: 0x8, addend: 0x0, symName: __ZNSt3__16vectorIiNS_9allocatorIiEEEC1B7v160006EOS3_, symObjAddr: 0x58FC, symBinAddr: 0x1000060D4, symSize: 0x34 }
  - { offsetInCU: 0x159FF, offset: 0x159FF, size: 0x8, addend: 0x0, symName: __ZNSt3__16vectorIiNS_9allocatorIiEEEC2B7v160006EOS3_, symObjAddr: 0x5930, symBinAddr: 0x100006108, symSize: 0xD8 }
  - { offsetInCU: 0x15A3A, offset: 0x15A3A, size: 0x8, addend: 0x0, symName: __ZNSt3__16vectorIiNS_9allocatorIiEEEaSB7v160006ERKS3_, symObjAddr: 0x5A08, symBinAddr: 0x1000061E0, symSize: 0x68 }
  - { offsetInCU: 0x15A71, offset: 0x15A71, size: 0x8, addend: 0x0, symName: __ZNSt3__16vectorIiNS_9allocatorIiEEE19__copy_assign_allocB7v160006ERKS3_, symObjAddr: 0x5A70, symBinAddr: 0x100006248, symSize: 0x2C }
  - { offsetInCU: 0x15AA6, offset: 0x15AA6, size: 0x8, addend: 0x0, symName: __ZNSt3__16vectorIiNS_9allocatorIiEEE6assignIPiLi0EEEvT_S6_, symObjAddr: 0x5A9C, symBinAddr: 0x100006274, symSize: 0x17C }
  - { offsetInCU: 0x15B45, offset: 0x15B45, size: 0x8, addend: 0x0, symName: __ZNSt3__16vectorIiNS_9allocatorIiEEE19__copy_assign_allocB7v160006ERKS3_NS_17integral_constantIbLb0EEE, symObjAddr: 0x5C18, symBinAddr: 0x1000063F0, symSize: 0x14 }
  - { offsetInCU: 0x15BA4, offset: 0x15BA4, size: 0x8, addend: 0x0, symName: __ZNKSt3__114__copy_trivialclB7v160006IiiLi0EEENS_4pairIPT_PT0_EES4_S4_S6_, symObjAddr: 0x5EE8, symBinAddr: 0x1000066C0, symSize: 0x48 }
  - { offsetInCU: 0x15C11, offset: 0x15C11, size: 0x8, addend: 0x0, symName: __ZNSt3__14pairIPiS1_EC1B7v160006IRS1_S1_LPv0EEEOT_OT0_, symObjAddr: 0x60B0, symBinAddr: 0x100006888, symSize: 0x3C }
  - { offsetInCU: 0x15C6F, offset: 0x15C6F, size: 0x8, addend: 0x0, symName: __ZNSt3__14pairIPiS1_EC2B7v160006IRS1_S1_LPv0EEEOT_OT0_, symObjAddr: 0x60EC, symBinAddr: 0x1000068C4, symSize: 0x34 }
  - { offsetInCU: 0x15CCD, offset: 0x15CCD, size: 0x8, addend: 0x0, symName: __ZNSt3__118__unwrap_iter_implIPiLb1EE8__unwrapB7v160006ES1_, symObjAddr: 0x6120, symBinAddr: 0x1000068F8, symSize: 0x24 }
  - { offsetInCU: 0x15CF0, offset: 0x15CF0, size: 0x8, addend: 0x0, symName: __ZNSt3__14pairIPiS1_EC1B7v160006IS1_S1_LPv0EEEOT_OT0_, symObjAddr: 0x6144, symBinAddr: 0x10000691C, symSize: 0x3C }
  - { offsetInCU: 0x15D4E, offset: 0x15D4E, size: 0x8, addend: 0x0, symName: __ZNSt3__14pairIPiS1_EC2B7v160006IS1_S1_LPv0EEEOT_OT0_, symObjAddr: 0x6180, symBinAddr: 0x100006958, symSize: 0x34 }
  - { offsetInCU: 0x15DAC, offset: 0x15DAC, size: 0x8, addend: 0x0, symName: __ZNSt3__118__unwrap_iter_implIPiLb1EE8__rewrapB7v160006ES1_S1_, symObjAddr: 0x61B4, symBinAddr: 0x10000698C, symSize: 0x50 }
  - { offsetInCU: 0x15DDD, offset: 0x15DDD, size: 0x8, addend: 0x0, symName: __ZNKSt3__111__wrap_iterIP6bignumE4baseB7v160006Ev, symObjAddr: 0x624C, symBinAddr: 0x100006A24, symSize: 0x18 }
  - { offsetInCU: 0x15E03, offset: 0x15E03, size: 0x8, addend: 0x0, symName: __ZNKSt3__16chrono8durationIxNS_5ratioILl1ELl1000000000EEEE5countB7v160006Ev, symObjAddr: 0x62AC, symBinAddr: 0x100006A84, symSize: 0x18 }
  - { offsetInCU: 0x15E38, offset: 0x15E38, size: 0x8, addend: 0x0, symName: __ZNSt3__16chrono8durationIxNS_5ratioILl1ELl1000000EEEEC1B7v160006IxEERKT_PNS_9enable_ifIXaasr14is_convertibleIS8_xEE5valueooL_ZNS_17integral_constantIbLb0EE5valueEEntsr23treat_as_floating_pointIS6_EE5valueEvE4typeE, symObjAddr: 0x62C4, symBinAddr: 0x100006A9C, symSize: 0x3C }
  - { offsetInCU: 0x15E84, offset: 0x15E84, size: 0x8, addend: 0x0, symName: __ZNSt3__16chrono8durationIxNS_5ratioILl1ELl1000000EEEEC2B7v160006IxEERKT_PNS_9enable_ifIXaasr14is_convertibleIS8_xEE5valueooL_ZNS_17integral_constantIbLb0EE5valueEEntsr23treat_as_floating_pointIS6_EE5valueEvE4typeE, symObjAddr: 0x6300, symBinAddr: 0x100006AD8, symSize: 0x28 }
  - { offsetInCU: 0x15ED0, offset: 0x15ED0, size: 0x8, addend: 0x0, symName: __ZNSt3__18ios_base4setfB7v160006Ejj, symObjAddr: 0x6328, symBinAddr: 0x100006B00, symSize: 0x5C }
  - { offsetInCU: 0x15F25, offset: 0x15F25, size: 0x8, addend: 0x0, symName: __ZNSt3__18ios_base6unsetfB7v160006Ej, symObjAddr: 0x6384, symBinAddr: 0x100006B5C, symSize: 0x28 }
  - { offsetInCU: 0x15F5C, offset: 0x15F5C, size: 0x8, addend: 0x0, symName: __ZNSt3__18__iom_t5C1B7v160006Ei, symObjAddr: 0x63AC, symBinAddr: 0x100006B84, symSize: 0x34 }
  - { offsetInCU: 0x15F94, offset: 0x15F94, size: 0x8, addend: 0x0, symName: __ZNSt3__18__iom_t5C2B7v160006Ei, symObjAddr: 0x63E0, symBinAddr: 0x100006BB8, symSize: 0x20 }
  - { offsetInCU: 0x15FCC, offset: 0x15FCC, size: 0x8, addend: 0x0, symName: __ZNSt3__16vectorIiNS_9allocatorIiEEE5beginB7v160006Ev, symObjAddr: 0x6444, symBinAddr: 0x100006C1C, symSize: 0x30 }
  - { offsetInCU: 0x15FF4, offset: 0x15FF4, size: 0x8, addend: 0x0, symName: __ZNSt3__16vectorIiNS_9allocatorIiEEE3endB7v160006Ev, symObjAddr: 0x6474, symBinAddr: 0x100006C4C, symSize: 0x30 }
  - { offsetInCU: 0x1601C, offset: 0x1601C, size: 0x8, addend: 0x0, symName: __ZNKSt3__111__wrap_iterIPiEdeB7v160006Ev, symObjAddr: 0x661C, symBinAddr: 0x100006DF4, symSize: 0x18 }
  - { offsetInCU: 0x16042, offset: 0x16042, size: 0x8, addend: 0x0, symName: __ZNSt3__111__wrap_iterIPiEppB7v160006Ev, symObjAddr: 0x6634, symBinAddr: 0x100006E0C, symSize: 0x20 }
  - { offsetInCU: 0x16068, offset: 0x16068, size: 0x8, addend: 0x0, symName: __ZNKSt3__111__wrap_iterIPiE4baseB7v160006Ev, symObjAddr: 0x6654, symBinAddr: 0x100006E2C, symSize: 0x18 }
  - { offsetInCU: 0x1608E, offset: 0x1608E, size: 0x8, addend: 0x0, symName: __ZNSt3__16vectorIiNS_9allocatorIiEEE11__make_iterB7v160006EPi, symObjAddr: 0x666C, symBinAddr: 0x100006E44, symSize: 0x34 }
  - { offsetInCU: 0x160C3, offset: 0x160C3, size: 0x8, addend: 0x0, symName: __ZNSt3__111__wrap_iterIPiEC1B7v160006EPKvS1_, symObjAddr: 0x66A0, symBinAddr: 0x100006E78, symSize: 0x3C }
  - { offsetInCU: 0x16109, offset: 0x16109, size: 0x8, addend: 0x0, symName: __ZNSt3__111__wrap_iterIPiEC2B7v160006EPKvS1_, symObjAddr: 0x66DC, symBinAddr: 0x100006EB4, symSize: 0x24 }
  - { offsetInCU: 0x1614F, offset: 0x1614F, size: 0x8, addend: 0x0, symName: __ZNSt3__112basic_stringIcNS_11char_traitsIcEENS_9allocatorIcEEEC2B7v160006IDnEEPKc, symObjAddr: 0x6700, symBinAddr: 0x100006ED8, symSize: 0x60 }
  - { offsetInCU: 0x1618D, offset: 0x1618D, size: 0x8, addend: 0x0, symName: __ZNSt3__117__compressed_pairINS_12basic_stringIcNS_11char_traitsIcEENS_9allocatorIcEEE5__repES5_EC1B7v160006INS_18__default_init_tagESA_EEOT_OT0_, symObjAddr: 0x6760, symBinAddr: 0x100006F38, symSize: 0x3C }
  - { offsetInCU: 0x161E5, offset: 0x161E5, size: 0x8, addend: 0x0, symName: __ZNSt3__111char_traitsIcE6lengthEPKc, symObjAddr: 0x679C, symBinAddr: 0x100006F74, symSize: 0x34 }
  - { offsetInCU: 0x16208, offset: 0x16208, size: 0x8, addend: 0x0, symName: __ZNSt3__117__compressed_pairINS_12basic_stringIcNS_11char_traitsIcEENS_9allocatorIcEEE5__repES5_EC2B7v160006INS_18__default_init_tagESA_EEOT_OT0_, symObjAddr: 0x67E0, symBinAddr: 0x100006FB8, symSize: 0x3C }
  - { offsetInCU: 0x16260, offset: 0x16260, size: 0x8, addend: 0x0, symName: __ZNSt3__122__compressed_pair_elemINS_12basic_stringIcNS_11char_traitsIcEENS_9allocatorIcEEE5__repELi0ELb0EEC2B7v160006ENS_18__default_init_tagE, symObjAddr: 0x681C, symBinAddr: 0x100006FF4, symSize: 0x14 }
  - { offsetInCU: 0x16294, offset: 0x16294, size: 0x8, addend: 0x0, symName: __ZNSt3__122__compressed_pair_elemINS_9allocatorIcEELi1ELb1EEC2B7v160006ENS_18__default_init_tagE, symObjAddr: 0x6830, symBinAddr: 0x100007008, symSize: 0x2C }
  - { offsetInCU: 0x162C8, offset: 0x162C8, size: 0x8, addend: 0x0, symName: __ZNSt3__19allocatorIcEC2B7v160006Ev, symObjAddr: 0x685C, symBinAddr: 0x100007034, symSize: 0x2C }
  - { offsetInCU: 0x162F2, offset: 0x162F2, size: 0x8, addend: 0x0, symName: __ZNSt3__116__non_trivial_ifILb1ENS_9allocatorIcEEEC2B7v160006Ev, symObjAddr: 0x6888, symBinAddr: 0x100007060, symSize: 0x14 }
  - { offsetInCU: 0x1631C, offset: 0x1631C, size: 0x8, addend: 0x0, symName: __ZNSt3__112basic_stringIcNS_11char_traitsIcEENS_9allocatorIcEEE6appendB7v160006ERKS5_, symObjAddr: 0x68C0, symBinAddr: 0x100007098, symSize: 0x4C }
  - { offsetInCU: 0x16351, offset: 0x16351, size: 0x8, addend: 0x0, symName: __ZNKSt3__112basic_stringIcNS_11char_traitsIcEENS_9allocatorIcEEE4dataB7v160006Ev, symObjAddr: 0x690C, symBinAddr: 0x1000070E4, symSize: 0x28 }
  - { offsetInCU: 0x16377, offset: 0x16377, size: 0x8, addend: 0x0, symName: __ZNKSt3__112basic_stringIcNS_11char_traitsIcEENS_9allocatorIcEEE4sizeB7v160006Ev, symObjAddr: 0x6934, symBinAddr: 0x10000710C, symSize: 0x54 }
  - { offsetInCU: 0x1639D, offset: 0x1639D, size: 0x8, addend: 0x0, symName: __ZNKSt3__112basic_stringIcNS_11char_traitsIcEENS_9allocatorIcEEE13__get_pointerB7v160006Ev, symObjAddr: 0x699C, symBinAddr: 0x100007174, symSize: 0x54 }
  - { offsetInCU: 0x163C3, offset: 0x163C3, size: 0x8, addend: 0x0, symName: __ZNKSt3__112basic_stringIcNS_11char_traitsIcEENS_9allocatorIcEEE9__is_longB7v160006Ev, symObjAddr: 0x69F0, symBinAddr: 0x1000071C8, symSize: 0x38 }
  - { offsetInCU: 0x163E9, offset: 0x163E9, size: 0x8, addend: 0x0, symName: __ZNKSt3__112basic_stringIcNS_11char_traitsIcEENS_9allocatorIcEEE18__get_long_pointerB7v160006Ev, symObjAddr: 0x6A28, symBinAddr: 0x100007200, symSize: 0x28 }
  - { offsetInCU: 0x1640F, offset: 0x1640F, size: 0x8, addend: 0x0, symName: __ZNKSt3__112basic_stringIcNS_11char_traitsIcEENS_9allocatorIcEEE19__get_short_pointerB7v160006Ev, symObjAddr: 0x6A50, symBinAddr: 0x100007228, symSize: 0x28 }
  - { offsetInCU: 0x16435, offset: 0x16435, size: 0x8, addend: 0x0, symName: __ZNKSt3__117__compressed_pairINS_12basic_stringIcNS_11char_traitsIcEENS_9allocatorIcEEE5__repES5_E5firstB7v160006Ev, symObjAddr: 0x6A78, symBinAddr: 0x100007250, symSize: 0x24 }
  - { offsetInCU: 0x1645B, offset: 0x1645B, size: 0x8, addend: 0x0, symName: __ZNKSt3__122__compressed_pair_elemINS_12basic_stringIcNS_11char_traitsIcEENS_9allocatorIcEEE5__repELi0ELb0EE5__getB7v160006Ev, symObjAddr: 0x6A9C, symBinAddr: 0x100007274, symSize: 0x14 }
  - { offsetInCU: 0x16481, offset: 0x16481, size: 0x8, addend: 0x0, symName: __ZNSt3__114pointer_traitsIPKcE10pointer_toB7v160006ERS1_, symObjAddr: 0x6AB0, symBinAddr: 0x100007288, symSize: 0x14 }
  - { offsetInCU: 0x164A4, offset: 0x164A4, size: 0x8, addend: 0x0, symName: __ZNKSt3__112basic_stringIcNS_11char_traitsIcEENS_9allocatorIcEEE15__get_long_sizeB7v160006Ev, symObjAddr: 0x6AC4, symBinAddr: 0x10000729C, symSize: 0x28 }
  - { offsetInCU: 0x164CA, offset: 0x164CA, size: 0x8, addend: 0x0, symName: __ZNKSt3__112basic_stringIcNS_11char_traitsIcEENS_9allocatorIcEEE16__get_short_sizeB7v160006Ev, symObjAddr: 0x6AEC, symBinAddr: 0x1000072C4, symSize: 0x34 }
  - { offsetInCU: 0x1650E, offset: 0x1650E, size: 0x8, addend: 0x0, symName: __ZNKSt3__113basic_ostreamIcNS_11char_traitsIcEEE6sentrycvbB7v160006Ev, symObjAddr: 0x6D0C, symBinAddr: 0x1000074E4, symSize: 0x1C }
  - { offsetInCU: 0x16534, offset: 0x16534, size: 0x8, addend: 0x0, symName: __ZNSt3__119ostreambuf_iteratorIcNS_11char_traitsIcEEEC1B7v160006ERNS_13basic_ostreamIcS2_EE, symObjAddr: 0x6F68, symBinAddr: 0x100007740, symSize: 0x34 }
  - { offsetInCU: 0x1656C, offset: 0x1656C, size: 0x8, addend: 0x0, symName: __ZNKSt3__18ios_base5flagsB7v160006Ev, symObjAddr: 0x6F9C, symBinAddr: 0x100007774, symSize: 0x18 }
  - { offsetInCU: 0x16594, offset: 0x16594, size: 0x8, addend: 0x0, symName: __ZNKSt3__19basic_iosIcNS_11char_traitsIcEEE4fillB7v160006Ev, symObjAddr: 0x6FB4, symBinAddr: 0x10000778C, symSize: 0x64 }
  - { offsetInCU: 0x165BC, offset: 0x165BC, size: 0x8, addend: 0x0, symName: __ZNKSt3__119ostreambuf_iteratorIcNS_11char_traitsIcEEE6failedB7v160006Ev, symObjAddr: 0x7018, symBinAddr: 0x1000077F0, symSize: 0x24 }
  - { offsetInCU: 0x165E2, offset: 0x165E2, size: 0x8, addend: 0x0, symName: __ZNSt3__19basic_iosIcNS_11char_traitsIcEEE8setstateB7v160006Ej, symObjAddr: 0x703C, symBinAddr: 0x100007814, symSize: 0x2C }
  - { offsetInCU: 0x16617, offset: 0x16617, size: 0x8, addend: 0x0, symName: __ZNKSt3__18ios_base5widthB7v160006Ev, symObjAddr: 0x7068, symBinAddr: 0x100007840, symSize: 0x18 }
  - { offsetInCU: 0x1663F, offset: 0x1663F, size: 0x8, addend: 0x0, symName: __ZNSt3__115basic_streambufIcNS_11char_traitsIcEEE5sputnB7v160006EPKcl, symObjAddr: 0x7080, symBinAddr: 0x100007858, symSize: 0x3C }
  - { offsetInCU: 0x16681, offset: 0x16681, size: 0x8, addend: 0x0, symName: __ZNSt3__112basic_stringIcNS_11char_traitsIcEENS_9allocatorIcEEEC1B7v160006Emc, symObjAddr: 0x70BC, symBinAddr: 0x100007894, symSize: 0x3C }
  - { offsetInCU: 0x166C9, offset: 0x166C9, size: 0x8, addend: 0x0, symName: __ZNSt3__18ios_base5widthB7v160006El, symObjAddr: 0x70F8, symBinAddr: 0x1000078D0, symSize: 0x2C }
  - { offsetInCU: 0x1670F, offset: 0x1670F, size: 0x8, addend: 0x0, symName: __ZNSt3__112basic_stringIcNS_11char_traitsIcEENS_9allocatorIcEEEC2B7v160006Emc, symObjAddr: 0x7124, symBinAddr: 0x1000078FC, symSize: 0x54 }
  - { offsetInCU: 0x16757, offset: 0x16757, size: 0x8, addend: 0x0, symName: __ZNSt3__119ostreambuf_iteratorIcNS_11char_traitsIcEEEC2B7v160006ERNS_13basic_ostreamIcS2_EE, symObjAddr: 0x7178, symBinAddr: 0x100007950, symSize: 0x54 }
  - { offsetInCU: 0x1678F, offset: 0x1678F, size: 0x8, addend: 0x0, symName: __ZNKSt3__19basic_iosIcNS_11char_traitsIcEEE5rdbufB7v160006Ev, symObjAddr: 0x71CC, symBinAddr: 0x1000079A4, symSize: 0x24 }
  - { offsetInCU: 0x167B7, offset: 0x167B7, size: 0x8, addend: 0x0, symName: __ZNKSt3__18ios_base5rdbufB7v160006Ev, symObjAddr: 0x71F0, symBinAddr: 0x1000079C8, symSize: 0x18 }
  - { offsetInCU: 0x167DD, offset: 0x167DD, size: 0x8, addend: 0x0, symName: __ZNSt3__111char_traitsIcE11eq_int_typeEii, symObjAddr: 0x7208, symBinAddr: 0x1000079E0, symSize: 0x28 }
  - { offsetInCU: 0x1680E, offset: 0x1680E, size: 0x8, addend: 0x0, symName: __ZNSt3__111char_traitsIcE3eofEv, symObjAddr: 0x7230, symBinAddr: 0x100007A08, symSize: 0x8 }
  - { offsetInCU: 0x16822, offset: 0x16822, size: 0x8, addend: 0x0, symName: __ZNKSt3__19basic_iosIcNS_11char_traitsIcEEE5widenB7v160006Ec, symObjAddr: 0x7238, symBinAddr: 0x100007A10, symSize: 0x84 }
  - { offsetInCU: 0x16890, offset: 0x16890, size: 0x8, addend: 0x0, symName: __ZNKSt3__15ctypeIcE5widenB7v160006Ec, symObjAddr: 0x72E8, symBinAddr: 0x100007AC0, symSize: 0x38 }
  - { offsetInCU: 0x168C5, offset: 0x168C5, size: 0x8, addend: 0x0, symName: __ZNSt3__18ios_base8setstateB7v160006Ej, symObjAddr: 0x7320, symBinAddr: 0x100007AF8, symSize: 0x34 }
  - { offsetInCU: 0x168FC, offset: 0x168FC, size: 0x8, addend: 0x0, symName: __ZNSt3__113unordered_setINS_12basic_stringIcNS_11char_traitsIcEENS_9allocatorIcEEEENS_4hashIS6_EENS_8equal_toIS6_EENS4_IS6_EEEC2B7v160006Ev, symObjAddr: 0x7354, symBinAddr: 0x100007B2C, symSize: 0x3C }
  - { offsetInCU: 0x16926, offset: 0x16926, size: 0x8, addend: 0x0, symName: __ZNSt3__112__hash_tableINS_12basic_stringIcNS_11char_traitsIcEENS_9allocatorIcEEEENS_4hashIS6_EENS_8equal_toIS6_EENS4_IS6_EEEC1Ev, symObjAddr: 0x7390, symBinAddr: 0x100007B68, symSize: 0x2C }
  - { offsetInCU: 0x16952, offset: 0x16952, size: 0x8, addend: 0x0, symName: __ZNSt3__112__hash_tableINS_12basic_stringIcNS_11char_traitsIcEENS_9allocatorIcEEEENS_4hashIS6_EENS_8equal_toIS6_EENS4_IS6_EEEC2Ev, symObjAddr: 0x73CC, symBinAddr: 0x100007BA4, symSize: 0x7C }
  - { offsetInCU: 0x1697E, offset: 0x1697E, size: 0x8, addend: 0x0, symName: __ZNSt3__110unique_ptrIA_PNS_16__hash_node_baseIPNS_11__hash_nodeINS_12basic_stringIcNS_11char_traitsIcEENS_9allocatorIcEEEEPvEEEENS_25__bucket_list_deallocatorINS6_ISD_EEEEEC1B7v160006ILb1EvEEv, symObjAddr: 0x7448, symBinAddr: 0x100007C20, symSize: 0x2C }
  - { offsetInCU: 0x169B3, offset: 0x169B3, size: 0x8, addend: 0x0, symName: __ZNSt3__117__compressed_pairINS_16__hash_node_baseIPNS_11__hash_nodeINS_12basic_stringIcNS_11char_traitsIcEENS_9allocatorIcEEEEPvEEEENS6_ISA_EEEC1B7v160006ILb1EvEEv, symObjAddr: 0x7474, symBinAddr: 0x100007C4C, symSize: 0x2C }
  - { offsetInCU: 0x169E8, offset: 0x169E8, size: 0x8, addend: 0x0, symName: __ZNSt3__117__compressed_pairImNS_4hashINS_12basic_stringIcNS_11char_traitsIcEENS_9allocatorIcEEEEEEEC1B7v160006IiNS_18__default_init_tagEEEOT_OT0_, symObjAddr: 0x74A0, symBinAddr: 0x100007C78, symSize: 0x3C }
  - { offsetInCU: 0x16A45, offset: 0x16A45, size: 0x8, addend: 0x0, symName: __ZNSt3__117__compressed_pairIfNS_8equal_toINS_12basic_stringIcNS_11char_traitsIcEENS_9allocatorIcEEEEEEEC1B7v160006IfNS_18__default_init_tagEEEOT_OT0_, symObjAddr: 0x74DC, symBinAddr: 0x100007CB4, symSize: 0x3C }
  - { offsetInCU: 0x16A9D, offset: 0x16A9D, size: 0x8, addend: 0x0, symName: __ZNSt3__110unique_ptrIA_PNS_16__hash_node_baseIPNS_11__hash_nodeINS_12basic_stringIcNS_11char_traitsIcEENS_9allocatorIcEEEEPvEEEENS_25__bucket_list_deallocatorINS6_ISD_EEEEEC2B7v160006ILb1EvEEv, symObjAddr: 0x7518, symBinAddr: 0x100007CF0, symSize: 0x3C }
  - { offsetInCU: 0x16AD7, offset: 0x16AD7, size: 0x8, addend: 0x0, symName: __ZNSt3__117__compressed_pairIPPNS_16__hash_node_baseIPNS_11__hash_nodeINS_12basic_stringIcNS_11char_traitsIcEENS_9allocatorIcEEEEPvEEEENS_25__bucket_list_deallocatorINS6_ISD_EEEEEC1B7v160006INS_16__value_init_tagESK_EEOT_OT0_, symObjAddr: 0x7554, symBinAddr: 0x100007D2C, symSize: 0x3C }
  - { offsetInCU: 0x16B2F, offset: 0x16B2F, size: 0x8, addend: 0x0, symName: __ZNSt3__117__compressed_pairIPPNS_16__hash_node_baseIPNS_11__hash_nodeINS_12basic_stringIcNS_11char_traitsIcEENS_9allocatorIcEEEEPvEEEENS_25__bucket_list_deallocatorINS6_ISD_EEEEEC2B7v160006INS_16__value_init_tagESK_EEOT_OT0_, symObjAddr: 0x7590, symBinAddr: 0x100007D68, symSize: 0x40 }
  - { offsetInCU: 0x16B87, offset: 0x16B87, size: 0x8, addend: 0x0, symName: __ZNSt3__122__compressed_pair_elemIPPNS_16__hash_node_baseIPNS_11__hash_nodeINS_12basic_stringIcNS_11char_traitsIcEENS_9allocatorIcEEEEPvEEEELi0ELb0EEC2B7v160006ENS_16__value_init_tagE, symObjAddr: 0x75D0, symBinAddr: 0x100007DA8, symSize: 0x18 }
  - { offsetInCU: 0x16BBB, offset: 0x16BBB, size: 0x8, addend: 0x0, symName: __ZNSt3__122__compressed_pair_elemINS_25__bucket_list_deallocatorINS_9allocatorIPNS_16__hash_node_baseIPNS_11__hash_nodeINS_12basic_stringIcNS_11char_traitsIcEENS2_IcEEEEPvEEEEEEEELi1ELb0EEC2B7v160006ENS_16__value_init_tagE, symObjAddr: 0x75E8, symBinAddr: 0x100007DC0, symSize: 0x2C }
  - { offsetInCU: 0x16BEF, offset: 0x16BEF, size: 0x8, addend: 0x0, symName: __ZNSt3__125__bucket_list_deallocatorINS_9allocatorIPNS_16__hash_node_baseIPNS_11__hash_nodeINS_12basic_stringIcNS_11char_traitsIcEENS1_IcEEEEPvEEEEEEEC1B7v160006Ev, symObjAddr: 0x7614, symBinAddr: 0x100007DEC, symSize: 0x2C }
  - { offsetInCU: 0x16C19, offset: 0x16C19, size: 0x8, addend: 0x0, symName: __ZNSt3__125__bucket_list_deallocatorINS_9allocatorIPNS_16__hash_node_baseIPNS_11__hash_nodeINS_12basic_stringIcNS_11char_traitsIcEENS1_IcEEEEPvEEEEEEEC2B7v160006Ev, symObjAddr: 0x7640, symBinAddr: 0x100007E18, symSize: 0x40 }
  - { offsetInCU: 0x16C43, offset: 0x16C43, size: 0x8, addend: 0x0, symName: __ZNSt3__117__compressed_pairImNS_9allocatorIPNS_16__hash_node_baseIPNS_11__hash_nodeINS_12basic_stringIcNS_11char_traitsIcEENS1_IcEEEEPvEEEEEEEC1B7v160006IiNS_18__default_init_tagEEEOT_OT0_, symObjAddr: 0x7680, symBinAddr: 0x100007E58, symSize: 0x3C }
  - { offsetInCU: 0x16C9B, offset: 0x16C9B, size: 0x8, addend: 0x0, symName: __ZNSt3__117__compressed_pairImNS_9allocatorIPNS_16__hash_node_baseIPNS_11__hash_nodeINS_12basic_stringIcNS_11char_traitsIcEENS1_IcEEEEPvEEEEEEEC2B7v160006IiNS_18__default_init_tagEEEOT_OT0_, symObjAddr: 0x76BC, symBinAddr: 0x100007E94, symSize: 0x40 }
  - { offsetInCU: 0x16CF3, offset: 0x16CF3, size: 0x8, addend: 0x0, symName: __ZNSt3__122__compressed_pair_elemImLi0ELb0EEC2B7v160006IivEEOT_, symObjAddr: 0x76FC, symBinAddr: 0x100007ED4, symSize: 0x24 }
  - { offsetInCU: 0x16D35, offset: 0x16D35, size: 0x8, addend: 0x0, symName: __ZNSt3__122__compressed_pair_elemINS_9allocatorIPNS_16__hash_node_baseIPNS_11__hash_nodeINS_12basic_stringIcNS_11char_traitsIcEENS1_IcEEEEPvEEEEEELi1ELb1EEC2B7v160006ENS_18__default_init_tagE, symObjAddr: 0x7720, symBinAddr: 0x100007EF8, symSize: 0x2C }
  - { offsetInCU: 0x16D69, offset: 0x16D69, size: 0x8, addend: 0x0, symName: __ZNSt3__19allocatorIPNS_16__hash_node_baseIPNS_11__hash_nodeINS_12basic_stringIcNS_11char_traitsIcEENS0_IcEEEEPvEEEEEC2B7v160006Ev, symObjAddr: 0x774C, symBinAddr: 0x100007F24, symSize: 0x2C }
  - { offsetInCU: 0x16D93, offset: 0x16D93, size: 0x8, addend: 0x0, symName: __ZNSt3__116__non_trivial_ifILb1ENS_9allocatorIPNS_16__hash_node_baseIPNS_11__hash_nodeINS_12basic_stringIcNS_11char_traitsIcEENS1_IcEEEEPvEEEEEEEC2B7v160006Ev, symObjAddr: 0x7778, symBinAddr: 0x100007F50, symSize: 0x14 }
  - { offsetInCU: 0x16DBD, offset: 0x16DBD, size: 0x8, addend: 0x0, symName: __ZNSt3__117__compressed_pairINS_16__hash_node_baseIPNS_11__hash_nodeINS_12basic_stringIcNS_11char_traitsIcEENS_9allocatorIcEEEEPvEEEENS6_ISA_EEEC2B7v160006ILb1EvEEv, symObjAddr: 0x778C, symBinAddr: 0x100007F64, symSize: 0x34 }
  - { offsetInCU: 0x16DF2, offset: 0x16DF2, size: 0x8, addend: 0x0, symName: __ZNSt3__122__compressed_pair_elemINS_16__hash_node_baseIPNS_11__hash_nodeINS_12basic_stringIcNS_11char_traitsIcEENS_9allocatorIcEEEEPvEEEELi0ELb0EEC2B7v160006ENS_16__value_init_tagE, symObjAddr: 0x77C0, symBinAddr: 0x100007F98, symSize: 0x2C }
  - { offsetInCU: 0x16E26, offset: 0x16E26, size: 0x8, addend: 0x0, symName: __ZNSt3__122__compressed_pair_elemINS_9allocatorINS_11__hash_nodeINS_12basic_stringIcNS_11char_traitsIcEENS1_IcEEEEPvEEEELi1ELb1EEC2B7v160006ENS_16__value_init_tagE, symObjAddr: 0x77EC, symBinAddr: 0x100007FC4, symSize: 0x2C }
  - { offsetInCU: 0x16E5A, offset: 0x16E5A, size: 0x8, addend: 0x0, symName: __ZNSt3__116__hash_node_baseIPNS_11__hash_nodeINS_12basic_stringIcNS_11char_traitsIcEENS_9allocatorIcEEEEPvEEEC1B7v160006Ev, symObjAddr: 0x7818, symBinAddr: 0x100007FF0, symSize: 0x2C }
  - { offsetInCU: 0x16E84, offset: 0x16E84, size: 0x8, addend: 0x0, symName: __ZNSt3__116__hash_node_baseIPNS_11__hash_nodeINS_12basic_stringIcNS_11char_traitsIcEENS_9allocatorIcEEEEPvEEEC2B7v160006Ev, symObjAddr: 0x7844, symBinAddr: 0x10000801C, symSize: 0x18 }
  - { offsetInCU: 0x16EAE, offset: 0x16EAE, size: 0x8, addend: 0x0, symName: __ZNSt3__19allocatorINS_11__hash_nodeINS_12basic_stringIcNS_11char_traitsIcEENS0_IcEEEEPvEEEC2B7v160006Ev, symObjAddr: 0x785C, symBinAddr: 0x100008034, symSize: 0x2C }
  - { offsetInCU: 0x16ED8, offset: 0x16ED8, size: 0x8, addend: 0x0, symName: __ZNSt3__116__non_trivial_ifILb1ENS_9allocatorINS_11__hash_nodeINS_12basic_stringIcNS_11char_traitsIcEENS1_IcEEEEPvEEEEEC2B7v160006Ev, symObjAddr: 0x7888, symBinAddr: 0x100008060, symSize: 0x14 }
  - { offsetInCU: 0x16F02, offset: 0x16F02, size: 0x8, addend: 0x0, symName: __ZNSt3__117__compressed_pairImNS_4hashINS_12basic_stringIcNS_11char_traitsIcEENS_9allocatorIcEEEEEEEC2B7v160006IiNS_18__default_init_tagEEEOT_OT0_, symObjAddr: 0x789C, symBinAddr: 0x100008074, symSize: 0x40 }
  - { offsetInCU: 0x16F5A, offset: 0x16F5A, size: 0x8, addend: 0x0, symName: __ZNSt3__122__compressed_pair_elemINS_4hashINS_12basic_stringIcNS_11char_traitsIcEENS_9allocatorIcEEEEEELi1ELb1EEC2B7v160006ENS_18__default_init_tagE, symObjAddr: 0x78DC, symBinAddr: 0x1000080B4, symSize: 0x14 }
  - { offsetInCU: 0x16F8E, offset: 0x16F8E, size: 0x8, addend: 0x0, symName: __ZNSt3__117__compressed_pairIfNS_8equal_toINS_12basic_stringIcNS_11char_traitsIcEENS_9allocatorIcEEEEEEEC2B7v160006IfNS_18__default_init_tagEEEOT_OT0_, symObjAddr: 0x78F0, symBinAddr: 0x1000080C8, symSize: 0x40 }
  - { offsetInCU: 0x16FE6, offset: 0x16FE6, size: 0x8, addend: 0x0, symName: __ZNSt3__122__compressed_pair_elemIfLi0ELb0EEC2B7v160006IfvEEOT_, symObjAddr: 0x7930, symBinAddr: 0x100008108, symSize: 0x24 }
  - { offsetInCU: 0x17028, offset: 0x17028, size: 0x8, addend: 0x0, symName: __ZNSt3__122__compressed_pair_elemINS_8equal_toINS_12basic_stringIcNS_11char_traitsIcEENS_9allocatorIcEEEEEELi1ELb1EEC2B7v160006ENS_18__default_init_tagE, symObjAddr: 0x7954, symBinAddr: 0x10000812C, symSize: 0x14 }
  - { offsetInCU: 0x1705C, offset: 0x1705C, size: 0x8, addend: 0x0, symName: __ZNSt3__113unordered_setINS_12basic_stringIcNS_11char_traitsIcEENS_9allocatorIcEEEENS_4hashIS6_EENS_8equal_toIS6_EENS4_IS6_EEED2B7v160006Ev, symObjAddr: 0x7968, symBinAddr: 0x100008140, symSize: 0x2C }
  - { offsetInCU: 0x17086, offset: 0x17086, size: 0x8, addend: 0x0, symName: __ZNSt3__112__hash_tableINS_12basic_stringIcNS_11char_traitsIcEENS_9allocatorIcEEEENS_4hashIS6_EENS_8equal_toIS6_EENS4_IS6_EEED1Ev, symObjAddr: 0x7994, symBinAddr: 0x10000816C, symSize: 0x2C }
  - { offsetInCU: 0x170B2, offset: 0x170B2, size: 0x8, addend: 0x0, symName: __ZNSt3__112__hash_tableINS_12basic_stringIcNS_11char_traitsIcEENS_9allocatorIcEEEENS_4hashIS6_EENS_8equal_toIS6_EENS4_IS6_EEED2Ev, symObjAddr: 0x79C0, symBinAddr: 0x100008198, symSize: 0x58 }
  - { offsetInCU: 0x170DE, offset: 0x170DE, size: 0x8, addend: 0x0, symName: __ZNSt3__112__hash_tableINS_12basic_stringIcNS_11char_traitsIcEENS_9allocatorIcEEEENS_4hashIS6_EENS_8equal_toIS6_EENS4_IS6_EEE17__deallocate_nodeEPNS_16__hash_node_baseIPNS_11__hash_nodeIS6_PvEEEE, symObjAddr: 0x7A18, symBinAddr: 0x1000081F0, symSize: 0xA8 }
  - { offsetInCU: 0x17148, offset: 0x17148, size: 0x8, addend: 0x0, symName: __ZNSt3__117__compressed_pairINS_16__hash_node_baseIPNS_11__hash_nodeINS_12basic_stringIcNS_11char_traitsIcEENS_9allocatorIcEEEEPvEEEENS6_ISA_EEE5firstB7v160006Ev, symObjAddr: 0x7AC0, symBinAddr: 0x100008298, symSize: 0x24 }
  - { offsetInCU: 0x1716E, offset: 0x1716E, size: 0x8, addend: 0x0, symName: __ZNSt3__110unique_ptrIA_PNS_16__hash_node_baseIPNS_11__hash_nodeINS_12basic_stringIcNS_11char_traitsIcEENS_9allocatorIcEEEEPvEEEENS_25__bucket_list_deallocatorINS6_ISD_EEEEED1B7v160006Ev, symObjAddr: 0x7AF4, symBinAddr: 0x1000082CC, symSize: 0x2C }
  - { offsetInCU: 0x17198, offset: 0x17198, size: 0x8, addend: 0x0, symName: __ZNSt3__112__hash_tableINS_12basic_stringIcNS_11char_traitsIcEENS_9allocatorIcEEEENS_4hashIS6_EENS_8equal_toIS6_EENS4_IS6_EEE12__node_allocB7v160006Ev, symObjAddr: 0x7B20, symBinAddr: 0x1000082F8, symSize: 0x28 }
  - { offsetInCU: 0x171BE, offset: 0x171BE, size: 0x8, addend: 0x0, symName: __ZNSt3__116__hash_node_baseIPNS_11__hash_nodeINS_12basic_stringIcNS_11char_traitsIcEENS_9allocatorIcEEEEPvEEE8__upcastB7v160006Ev, symObjAddr: 0x7B48, symBinAddr: 0x100008320, symSize: 0x24 }
  - { offsetInCU: 0x171E4, offset: 0x171E4, size: 0x8, addend: 0x0, symName: __ZNSt3__116allocator_traitsINS_9allocatorINS_11__hash_nodeINS_12basic_stringIcNS_11char_traitsIcEENS1_IcEEEEPvEEEEE7destroyB7v160006IS7_vvEEvRSA_PT_, symObjAddr: 0x7B6C, symBinAddr: 0x100008344, symSize: 0x28 }
  - { offsetInCU: 0x1721E, offset: 0x1721E, size: 0x8, addend: 0x0, symName: __ZNSt3__122__hash_key_value_typesINS_12basic_stringIcNS_11char_traitsIcEENS_9allocatorIcEEEEE9__get_ptrB7v160006ERS6_, symObjAddr: 0x7B94, symBinAddr: 0x10000836C, symSize: 0x14 }
  - { offsetInCU: 0x17241, offset: 0x17241, size: 0x8, addend: 0x0, symName: __ZNSt3__116allocator_traitsINS_9allocatorINS_11__hash_nodeINS_12basic_stringIcNS_11char_traitsIcEENS1_IcEEEEPvEEEEE10deallocateB7v160006ERSA_PS9_m, symObjAddr: 0x7BA8, symBinAddr: 0x100008380, symSize: 0x34 }
  - { offsetInCU: 0x17283, offset: 0x17283, size: 0x8, addend: 0x0, symName: __ZNSt3__117__compressed_pairINS_16__hash_node_baseIPNS_11__hash_nodeINS_12basic_stringIcNS_11char_traitsIcEENS_9allocatorIcEEEEPvEEEENS6_ISA_EEE6secondB7v160006Ev, symObjAddr: 0x7BDC, symBinAddr: 0x1000083B4, symSize: 0x24 }
  - { offsetInCU: 0x172A9, offset: 0x172A9, size: 0x8, addend: 0x0, symName: __ZNSt3__122__compressed_pair_elemINS_9allocatorINS_11__hash_nodeINS_12basic_stringIcNS_11char_traitsIcEENS1_IcEEEEPvEEEELi1ELb1EE5__getB7v160006Ev, symObjAddr: 0x7C00, symBinAddr: 0x1000083D8, symSize: 0x14 }
  - { offsetInCU: 0x172CF, offset: 0x172CF, size: 0x8, addend: 0x0, symName: __ZNSt3__114pointer_traitsIPNS_16__hash_node_baseIPNS_11__hash_nodeINS_12basic_stringIcNS_11char_traitsIcEENS_9allocatorIcEEEEPvEEEEE10pointer_toB7v160006ERSC_, symObjAddr: 0x7C14, symBinAddr: 0x1000083EC, symSize: 0x14 }
  - { offsetInCU: 0x172F2, offset: 0x172F2, size: 0x8, addend: 0x0, symName: __ZNSt3__19allocatorINS_11__hash_nodeINS_12basic_stringIcNS_11char_traitsIcEENS0_IcEEEEPvEEE10deallocateB7v160006EPS8_m, symObjAddr: 0x7C28, symBinAddr: 0x100008400, symSize: 0x44 }
  - { offsetInCU: 0x17334, offset: 0x17334, size: 0x8, addend: 0x0, symName: __ZNSt3__122__compressed_pair_elemINS_16__hash_node_baseIPNS_11__hash_nodeINS_12basic_stringIcNS_11char_traitsIcEENS_9allocatorIcEEEEPvEEEELi0ELb0EE5__getB7v160006Ev, symObjAddr: 0x7C6C, symBinAddr: 0x100008444, symSize: 0x14 }
  - { offsetInCU: 0x1735A, offset: 0x1735A, size: 0x8, addend: 0x0, symName: __ZNSt3__110unique_ptrIA_PNS_16__hash_node_baseIPNS_11__hash_nodeINS_12basic_stringIcNS_11char_traitsIcEENS_9allocatorIcEEEEPvEEEENS_25__bucket_list_deallocatorINS6_ISD_EEEEED2B7v160006Ev, symObjAddr: 0x7C80, symBinAddr: 0x100008458, symSize: 0x30 }
  - { offsetInCU: 0x17384, offset: 0x17384, size: 0x8, addend: 0x0, symName: __ZNSt3__110unique_ptrIA_PNS_16__hash_node_baseIPNS_11__hash_nodeINS_12basic_stringIcNS_11char_traitsIcEENS_9allocatorIcEEEEPvEEEENS_25__bucket_list_deallocatorINS6_ISD_EEEEE5resetB7v160006EDn, symObjAddr: 0x7CB0, symBinAddr: 0x100008488, symSize: 0x6C }
  - { offsetInCU: 0x173C4, offset: 0x173C4, size: 0x8, addend: 0x0, symName: __ZNSt3__117__compressed_pairIPPNS_16__hash_node_baseIPNS_11__hash_nodeINS_12basic_stringIcNS_11char_traitsIcEENS_9allocatorIcEEEEPvEEEENS_25__bucket_list_deallocatorINS6_ISD_EEEEE5firstB7v160006Ev, symObjAddr: 0x7D1C, symBinAddr: 0x1000084F4, symSize: 0x24 }
  - { offsetInCU: 0x173EA, offset: 0x173EA, size: 0x8, addend: 0x0, symName: __ZNSt3__117__compressed_pairIPPNS_16__hash_node_baseIPNS_11__hash_nodeINS_12basic_stringIcNS_11char_traitsIcEENS_9allocatorIcEEEEPvEEEENS_25__bucket_list_deallocatorINS6_ISD_EEEEE6secondB7v160006Ev, symObjAddr: 0x7D40, symBinAddr: 0x100008518, symSize: 0x28 }
  - { offsetInCU: 0x17410, offset: 0x17410, size: 0x8, addend: 0x0, symName: __ZNSt3__125__bucket_list_deallocatorINS_9allocatorIPNS_16__hash_node_baseIPNS_11__hash_nodeINS_12basic_stringIcNS_11char_traitsIcEENS1_IcEEEEPvEEEEEEEclB7v160006EPSD_, symObjAddr: 0x7D68, symBinAddr: 0x100008540, symSize: 0x58 }
  - { offsetInCU: 0x17445, offset: 0x17445, size: 0x8, addend: 0x0, symName: __ZNSt3__122__compressed_pair_elemIPPNS_16__hash_node_baseIPNS_11__hash_nodeINS_12basic_stringIcNS_11char_traitsIcEENS_9allocatorIcEEEEPvEEEELi0ELb0EE5__getB7v160006Ev, symObjAddr: 0x7DC0, symBinAddr: 0x100008598, symSize: 0x14 }
  - { offsetInCU: 0x1746B, offset: 0x1746B, size: 0x8, addend: 0x0, symName: __ZNSt3__122__compressed_pair_elemINS_25__bucket_list_deallocatorINS_9allocatorIPNS_16__hash_node_baseIPNS_11__hash_nodeINS_12basic_stringIcNS_11char_traitsIcEENS2_IcEEEEPvEEEEEEEELi1ELb0EE5__getB7v160006Ev, symObjAddr: 0x7DD4, symBinAddr: 0x1000085AC, symSize: 0x14 }
  - { offsetInCU: 0x17491, offset: 0x17491, size: 0x8, addend: 0x0, symName: __ZNSt3__116allocator_traitsINS_9allocatorIPNS_16__hash_node_baseIPNS_11__hash_nodeINS_12basic_stringIcNS_11char_traitsIcEENS1_IcEEEEPvEEEEEEE10deallocateB7v160006ERSE_PSD_m, symObjAddr: 0x7DE8, symBinAddr: 0x1000085C0, symSize: 0x34 }
  - { offsetInCU: 0x174D3, offset: 0x174D3, size: 0x8, addend: 0x0, symName: __ZNSt3__125__bucket_list_deallocatorINS_9allocatorIPNS_16__hash_node_baseIPNS_11__hash_nodeINS_12basic_stringIcNS_11char_traitsIcEENS1_IcEEEEPvEEEEEEE7__allocB7v160006Ev, symObjAddr: 0x7E1C, symBinAddr: 0x1000085F4, symSize: 0x24 }
  - { offsetInCU: 0x174F9, offset: 0x174F9, size: 0x8, addend: 0x0, symName: __ZNSt3__125__bucket_list_deallocatorINS_9allocatorIPNS_16__hash_node_baseIPNS_11__hash_nodeINS_12basic_stringIcNS_11char_traitsIcEENS1_IcEEEEPvEEEEEEE4sizeB7v160006Ev, symObjAddr: 0x7E40, symBinAddr: 0x100008618, symSize: 0x24 }
  - { offsetInCU: 0x1751F, offset: 0x1751F, size: 0x8, addend: 0x0, symName: __ZNSt3__19allocatorIPNS_16__hash_node_baseIPNS_11__hash_nodeINS_12basic_stringIcNS_11char_traitsIcEENS0_IcEEEEPvEEEEE10deallocateB7v160006EPSC_m, symObjAddr: 0x7E64, symBinAddr: 0x10000863C, symSize: 0x40 }
  - { offsetInCU: 0x17561, offset: 0x17561, size: 0x8, addend: 0x0, symName: __ZNSt3__117__compressed_pairImNS_9allocatorIPNS_16__hash_node_baseIPNS_11__hash_nodeINS_12basic_stringIcNS_11char_traitsIcEENS1_IcEEEEPvEEEEEEE6secondB7v160006Ev, symObjAddr: 0x7EA4, symBinAddr: 0x10000867C, symSize: 0x24 }
  - { offsetInCU: 0x17587, offset: 0x17587, size: 0x8, addend: 0x0, symName: __ZNSt3__122__compressed_pair_elemINS_9allocatorIPNS_16__hash_node_baseIPNS_11__hash_nodeINS_12basic_stringIcNS_11char_traitsIcEENS1_IcEEEEPvEEEEEELi1ELb1EE5__getB7v160006Ev, symObjAddr: 0x7EC8, symBinAddr: 0x1000086A0, symSize: 0x14 }
  - { offsetInCU: 0x175AD, offset: 0x175AD, size: 0x8, addend: 0x0, symName: __ZNSt3__117__compressed_pairImNS_9allocatorIPNS_16__hash_node_baseIPNS_11__hash_nodeINS_12basic_stringIcNS_11char_traitsIcEENS1_IcEEEEPvEEEEEEE5firstB7v160006Ev, symObjAddr: 0x7EDC, symBinAddr: 0x1000086B4, symSize: 0x24 }
  - { offsetInCU: 0x175D3, offset: 0x175D3, size: 0x8, addend: 0x0, symName: __ZNSt3__122__compressed_pair_elemImLi0ELb0EE5__getB7v160006Ev, symObjAddr: 0x7F00, symBinAddr: 0x1000086D8, symSize: 0x14 }
  - { offsetInCU: 0x175F9, offset: 0x175F9, size: 0x8, addend: 0x0, symName: __ZNSt3__16vectorI6bignumNS_9allocatorIS1_EEE11__make_iterB7v160006EPS1_, symObjAddr: 0x7F14, symBinAddr: 0x1000086EC, symSize: 0x34 }
  - { offsetInCU: 0x1762E, offset: 0x1762E, size: 0x8, addend: 0x0, symName: __ZNSt3__111__wrap_iterIP6bignumEC1B7v160006EPKvS2_, symObjAddr: 0x7F48, symBinAddr: 0x100008720, symSize: 0x3C }
  - { offsetInCU: 0x17674, offset: 0x17674, size: 0x8, addend: 0x0, symName: __ZNSt3__111__wrap_iterIP6bignumEC2B7v160006EPKvS2_, symObjAddr: 0x7F84, symBinAddr: 0x10000875C, symSize: 0x24 }
  - { offsetInCU: 0x176BA, offset: 0x176BA, size: 0x8, addend: 0x0, symName: __ZNSt3__112__hash_tableINS_12basic_stringIcNS_11char_traitsIcEENS_9allocatorIcEEEENS_4hashIS6_EENS_8equal_toIS6_EENS4_IS6_EEE16__emplace_uniqueB7v160006IS6_EENS_4pairINS_15__hash_iteratorIPNS_11__hash_nodeIS6_PvEEEEbEEOT_, symObjAddr: 0x7FA8, symBinAddr: 0x100008780, symSize: 0x3C }
  - { offsetInCU: 0x176F8, offset: 0x176F8, size: 0x8, addend: 0x0, symName: __ZNSt3__14pairINS_21__hash_const_iteratorIPNS_11__hash_nodeINS_12basic_stringIcNS_11char_traitsIcEENS_9allocatorIcEEEEPvEEEEbEC1B7v160006INS_15__hash_iteratorISB_EEbLS9_0EEEONS0_IT_T0_EE, symObjAddr: 0x7FE4, symBinAddr: 0x1000087BC, symSize: 0x34 }
  - { offsetInCU: 0x17749, offset: 0x17749, size: 0x8, addend: 0x0, symName: __ZNSt3__112__hash_tableINS_12basic_stringIcNS_11char_traitsIcEENS_9allocatorIcEEEENS_4hashIS6_EENS_8equal_toIS6_EENS4_IS6_EEE28__emplace_unique_extract_keyB7v160006IS6_EENS_4pairINS_15__hash_iteratorIPNS_11__hash_nodeIS6_PvEEEEbEEOT_NS_22__extract_key_self_tagE, symObjAddr: 0x8018, symBinAddr: 0x1000087F0, symSize: 0x40 }
  - { offsetInCU: 0x17792, offset: 0x17792, size: 0x8, addend: 0x0, symName: __ZNSt3__112__hash_tableINS_12basic_stringIcNS_11char_traitsIcEENS_9allocatorIcEEEENS_4hashIS6_EENS_8equal_toIS6_EENS4_IS6_EEE25__emplace_unique_key_argsIS6_JS6_EEENS_4pairINS_15__hash_iteratorIPNS_11__hash_nodeIS6_PvEEEEbEERKT_DpOT0_, symObjAddr: 0x8058, symBinAddr: 0x100008830, symSize: 0x4C0 }
  - { offsetInCU: 0x17871, offset: 0x17871, size: 0x8, addend: 0x0, symName: __ZNSt3__112__hash_tableINS_12basic_stringIcNS_11char_traitsIcEENS_9allocatorIcEEEENS_4hashIS6_EENS_8equal_toIS6_EENS4_IS6_EEE13hash_functionB7v160006Ev, symObjAddr: 0x8518, symBinAddr: 0x100008CF0, symSize: 0x28 }
  - { offsetInCU: 0x17897, offset: 0x17897, size: 0x8, addend: 0x0, symName: __ZNKSt3__113__string_hashIcNS_9allocatorIcEEEclERKNS_12basic_stringIcNS_11char_traitsIcEES2_EE, symObjAddr: 0x8540, symBinAddr: 0x100008D18, symSize: 0x64 }
  - { offsetInCU: 0x178CC, offset: 0x178CC, size: 0x8, addend: 0x0, symName: __ZNKSt3__112__hash_tableINS_12basic_stringIcNS_11char_traitsIcEENS_9allocatorIcEEEENS_4hashIS6_EENS_8equal_toIS6_EENS4_IS6_EEE12bucket_countB7v160006Ev, symObjAddr: 0x85A4, symBinAddr: 0x100008D7C, symSize: 0x28 }
  - { offsetInCU: 0x178F2, offset: 0x178F2, size: 0x8, addend: 0x0, symName: __ZNKSt3__110unique_ptrIA_PNS_16__hash_node_baseIPNS_11__hash_nodeINS_12basic_stringIcNS_11char_traitsIcEENS_9allocatorIcEEEEPvEEEENS_25__bucket_list_deallocatorINS6_ISD_EEEEEixB7v160006Em, symObjAddr: 0x8664, symBinAddr: 0x100008E3C, symSize: 0x34 }
  - { offsetInCU: 0x17927, offset: 0x17927, size: 0x8, addend: 0x0, symName: __ZNKSt3__116__hash_node_baseIPNS_11__hash_nodeINS_12basic_stringIcNS_11char_traitsIcEENS_9allocatorIcEEEEPvEEE6__hashB7v160006Ev, symObjAddr: 0x8698, symBinAddr: 0x100008E70, symSize: 0x18 }
  - { offsetInCU: 0x1794D, offset: 0x1794D, size: 0x8, addend: 0x0, symName: __ZNSt3__112__hash_tableINS_12basic_stringIcNS_11char_traitsIcEENS_9allocatorIcEEEENS_4hashIS6_EENS_8equal_toIS6_EENS4_IS6_EEE6key_eqB7v160006Ev, symObjAddr: 0x86B0, symBinAddr: 0x100008E88, symSize: 0x28 }
  - { offsetInCU: 0x17973, offset: 0x17973, size: 0x8, addend: 0x0, symName: __ZNKSt3__18equal_toINS_12basic_stringIcNS_11char_traitsIcEENS_9allocatorIcEEEEEclB7v160006ERKS6_S9_, symObjAddr: 0x86D8, symBinAddr: 0x100008EB0, symSize: 0x34 }
  - { offsetInCU: 0x179B7, offset: 0x179B7, size: 0x8, addend: 0x0, symName: __ZNSt3__112__hash_tableINS_12basic_stringIcNS_11char_traitsIcEENS_9allocatorIcEEEENS_4hashIS6_EENS_8equal_toIS6_EENS4_IS6_EEE21__construct_node_hashIS6_JEEENS_10unique_ptrINS_11__hash_nodeIS6_PvEENS_22__hash_node_destructorINS4_ISH_EEEEEEmOT_DpOT0_, symObjAddr: 0x870C, symBinAddr: 0x100008EE4, symSize: 0x138 }
  - { offsetInCU: 0x17A2A, offset: 0x17A2A, size: 0x8, addend: 0x0, symName: __ZNSt3__112__hash_tableINS_12basic_stringIcNS_11char_traitsIcEENS_9allocatorIcEEEENS_4hashIS6_EENS_8equal_toIS6_EENS4_IS6_EEE4sizeB7v160006Ev, symObjAddr: 0x8844, symBinAddr: 0x10000901C, symSize: 0x28 }
  - { offsetInCU: 0x17A50, offset: 0x17A50, size: 0x8, addend: 0x0, symName: __ZNSt3__112__hash_tableINS_12basic_stringIcNS_11char_traitsIcEENS_9allocatorIcEEEENS_4hashIS6_EENS_8equal_toIS6_EENS4_IS6_EEE15max_load_factorB7v160006Ev, symObjAddr: 0x886C, symBinAddr: 0x100009044, symSize: 0x28 }
  - { offsetInCU: 0x17A76, offset: 0x17A76, size: 0x8, addend: 0x0, symName: __ZNSt3__112__hash_tableINS_12basic_stringIcNS_11char_traitsIcEENS_9allocatorIcEEEENS_4hashIS6_EENS_8equal_toIS6_EENS4_IS6_EEE15__rehash_uniqueB7v160006Em, symObjAddr: 0x8894, symBinAddr: 0x10000906C, symSize: 0x2C }
  - { offsetInCU: 0x17AAA, offset: 0x17AAA, size: 0x8, addend: 0x0, symName: __Z4ceilB7v160006f, symObjAddr: 0x8910, symBinAddr: 0x1000090E8, symSize: 0x18 }
  - { offsetInCU: 0x17AD9, offset: 0x17AD9, size: 0x8, addend: 0x0, symName: __ZNSt3__116__hash_node_baseIPNS_11__hash_nodeINS_12basic_stringIcNS_11char_traitsIcEENS_9allocatorIcEEEEPvEEE5__ptrB7v160006Ev, symObjAddr: 0x8928, symBinAddr: 0x100009100, symSize: 0x24 }
  - { offsetInCU: 0x17AFF, offset: 0x17AFF, size: 0x8, addend: 0x0, symName: __ZNKSt3__110unique_ptrINS_11__hash_nodeINS_12basic_stringIcNS_11char_traitsIcEENS_9allocatorIcEEEEPvEENS_22__hash_node_destructorINS5_IS9_EEEEEptB7v160006Ev, symObjAddr: 0x894C, symBinAddr: 0x100009124, symSize: 0x28 }
  - { offsetInCU: 0x17B25, offset: 0x17B25, size: 0x8, addend: 0x0, symName: __ZNKSt3__110unique_ptrINS_11__hash_nodeINS_12basic_stringIcNS_11char_traitsIcEENS_9allocatorIcEEEEPvEENS_22__hash_node_destructorINS5_IS9_EEEEE3getB7v160006Ev, symObjAddr: 0x8974, symBinAddr: 0x10000914C, symSize: 0x28 }
  - { offsetInCU: 0x17B4B, offset: 0x17B4B, size: 0x8, addend: 0x0, symName: __ZNSt3__110unique_ptrINS_11__hash_nodeINS_12basic_stringIcNS_11char_traitsIcEENS_9allocatorIcEEEEPvEENS_22__hash_node_destructorINS5_IS9_EEEEE7releaseB7v160006Ev, symObjAddr: 0x899C, symBinAddr: 0x100009174, symSize: 0x44 }
  - { offsetInCU: 0x17B80, offset: 0x17B80, size: 0x8, addend: 0x0, symName: __ZNSt3__110unique_ptrINS_11__hash_nodeINS_12basic_stringIcNS_11char_traitsIcEENS_9allocatorIcEEEEPvEENS_22__hash_node_destructorINS5_IS9_EEEEED1B7v160006Ev, symObjAddr: 0x89E0, symBinAddr: 0x1000091B8, symSize: 0x2C }
  - { offsetInCU: 0x17BAA, offset: 0x17BAA, size: 0x8, addend: 0x0, symName: __ZNSt3__115__hash_iteratorIPNS_11__hash_nodeINS_12basic_stringIcNS_11char_traitsIcEENS_9allocatorIcEEEEPvEEEC1B7v160006EPNS_16__hash_node_baseISA_EEPKv, symObjAddr: 0x8A0C, symBinAddr: 0x1000091E4, symSize: 0x3C }
  - { offsetInCU: 0x17BFC, offset: 0x17BFC, size: 0x8, addend: 0x0, symName: __ZNSt3__14pairINS_15__hash_iteratorIPNS_11__hash_nodeINS_12basic_stringIcNS_11char_traitsIcEENS_9allocatorIcEEEEPvEEEEbEC1B7v160006ISC_RbLS9_0EEEOT_OT0_, symObjAddr: 0x8A48, symBinAddr: 0x100009220, symSize: 0x3C }
  - { offsetInCU: 0x17C5A, offset: 0x17C5A, size: 0x8, addend: 0x0, symName: __ZNSt3__117__compressed_pairImNS_4hashINS_12basic_stringIcNS_11char_traitsIcEENS_9allocatorIcEEEEEEE6secondB7v160006Ev, symObjAddr: 0x8A84, symBinAddr: 0x10000925C, symSize: 0x24 }
  - { offsetInCU: 0x17C80, offset: 0x17C80, size: 0x8, addend: 0x0, symName: __ZNSt3__122__compressed_pair_elemINS_4hashINS_12basic_stringIcNS_11char_traitsIcEENS_9allocatorIcEEEEEELi1ELb1EE5__getB7v160006Ev, symObjAddr: 0x8AA8, symBinAddr: 0x100009280, symSize: 0x14 }
  - { offsetInCU: 0x17CA6, offset: 0x17CA6, size: 0x8, addend: 0x0, symName: __ZNSt3__121__murmur2_or_cityhashImLm64EEclEPKvm, symObjAddr: 0x8AF8, symBinAddr: 0x1000092D0, symSize: 0x410 }
  - { offsetInCU: 0x17D41, offset: 0x17D41, size: 0x8, addend: 0x0, symName: __ZNSt3__121__murmur2_or_cityhashImLm64EE18__hash_len_0_to_16EPKcm, symObjAddr: 0x8F08, symBinAddr: 0x1000096E0, symSize: 0x1C0 }
  - { offsetInCU: 0x17E1A, offset: 0x17E1A, size: 0x8, addend: 0x0, symName: __ZNSt3__121__murmur2_or_cityhashImLm64EE19__hash_len_17_to_32EPKcm, symObjAddr: 0x90C8, symBinAddr: 0x1000098A0, symSize: 0x130 }
  - { offsetInCU: 0x17E83, offset: 0x17E83, size: 0x8, addend: 0x0, symName: __ZNSt3__121__murmur2_or_cityhashImLm64EE19__hash_len_33_to_64EPKcm, symObjAddr: 0x91F8, symBinAddr: 0x1000099D0, symSize: 0x2B8 }
  - { offsetInCU: 0x17F35, offset: 0x17F35, size: 0x8, addend: 0x0, symName: __ZNSt3__121__murmur2_or_cityhashImLm64EE13__hash_len_16Emm, symObjAddr: 0x94D0, symBinAddr: 0x100009CA8, symSize: 0x80 }
  - { offsetInCU: 0x17F90, offset: 0x17F90, size: 0x8, addend: 0x0, symName: __ZNSt3__121__murmur2_or_cityhashImLm64EE29__weak_hash_len_32_with_seedsEPKcmm, symObjAddr: 0x9550, symBinAddr: 0x100009D28, symSize: 0x88 }
  - { offsetInCU: 0x17FCF, offset: 0x17FCF, size: 0x8, addend: 0x0, symName: __ZNSt3__121__murmur2_or_cityhashImLm64EE8__rotateEmi, symObjAddr: 0x95D8, symBinAddr: 0x100009DB0, symSize: 0x64 }
  - { offsetInCU: 0x18000, offset: 0x18000, size: 0x8, addend: 0x0, symName: __ZNSt3__14pairImmEaSB7v160006EOS1_, symObjAddr: 0x963C, symBinAddr: 0x100009E14, symSize: 0x30 }
  - { offsetInCU: 0x18035, offset: 0x18035, size: 0x8, addend: 0x0, symName: __ZNSt3__121__murmur2_or_cityhashImLm64EE11__shift_mixEm, symObjAddr: 0x96A8, symBinAddr: 0x100009E80, symSize: 0x1C }
  - { offsetInCU: 0x18058, offset: 0x18058, size: 0x8, addend: 0x0, symName: __ZNSt3__121__murmur2_or_cityhashImLm64EE22__rotate_by_at_least_1Emi, symObjAddr: 0x96C4, symBinAddr: 0x100009E9C, symSize: 0x38 }
  - { offsetInCU: 0x18089, offset: 0x18089, size: 0x8, addend: 0x0, symName: __ZNSt3__121__murmur2_or_cityhashImLm64EE29__weak_hash_len_32_with_seedsEmmmmmm, symObjAddr: 0x971C, symBinAddr: 0x100009EF4, symSize: 0xD8 }
  - { offsetInCU: 0x18105, offset: 0x18105, size: 0x8, addend: 0x0, symName: __ZNSt3__14pairImmEC1B7v160006ImmLPv0EEEOT_OT0_, symObjAddr: 0x97F4, symBinAddr: 0x100009FCC, symSize: 0x3C }
  - { offsetInCU: 0x18163, offset: 0x18163, size: 0x8, addend: 0x0, symName: __ZNSt3__14pairImmEC2B7v160006ImmLPv0EEEOT_OT0_, symObjAddr: 0x9830, symBinAddr: 0x10000A008, symSize: 0x34 }
  - { offsetInCU: 0x181C1, offset: 0x181C1, size: 0x8, addend: 0x0, symName: __ZNKSt3__110unique_ptrIA_PNS_16__hash_node_baseIPNS_11__hash_nodeINS_12basic_stringIcNS_11char_traitsIcEENS_9allocatorIcEEEEPvEEEENS_25__bucket_list_deallocatorINS6_ISD_EEEEE11get_deleterB7v160006Ev, symObjAddr: 0x9864, symBinAddr: 0x10000A03C, symSize: 0x24 }
  - { offsetInCU: 0x181E7, offset: 0x181E7, size: 0x8, addend: 0x0, symName: __ZNKSt3__125__bucket_list_deallocatorINS_9allocatorIPNS_16__hash_node_baseIPNS_11__hash_nodeINS_12basic_stringIcNS_11char_traitsIcEENS1_IcEEEEPvEEEEEEE4sizeB7v160006Ev, symObjAddr: 0x9888, symBinAddr: 0x10000A060, symSize: 0x28 }
  - { offsetInCU: 0x1820D, offset: 0x1820D, size: 0x8, addend: 0x0, symName: __ZNKSt3__117__compressed_pairIPPNS_16__hash_node_baseIPNS_11__hash_nodeINS_12basic_stringIcNS_11char_traitsIcEENS_9allocatorIcEEEEPvEEEENS_25__bucket_list_deallocatorINS6_ISD_EEEEE6secondB7v160006Ev, symObjAddr: 0x98B0, symBinAddr: 0x10000A088, symSize: 0x28 }
  - { offsetInCU: 0x18233, offset: 0x18233, size: 0x8, addend: 0x0, symName: __ZNKSt3__122__compressed_pair_elemINS_25__bucket_list_deallocatorINS_9allocatorIPNS_16__hash_node_baseIPNS_11__hash_nodeINS_12basic_stringIcNS_11char_traitsIcEENS2_IcEEEEPvEEEEEEEELi1ELb0EE5__getB7v160006Ev, symObjAddr: 0x98D8, symBinAddr: 0x10000A0B0, symSize: 0x14 }
  - { offsetInCU: 0x18259, offset: 0x18259, size: 0x8, addend: 0x0, symName: __ZNKSt3__117__compressed_pairImNS_9allocatorIPNS_16__hash_node_baseIPNS_11__hash_nodeINS_12basic_stringIcNS_11char_traitsIcEENS1_IcEEEEPvEEEEEEE5firstB7v160006Ev, symObjAddr: 0x98EC, symBinAddr: 0x10000A0C4, symSize: 0x24 }
  - { offsetInCU: 0x1827F, offset: 0x1827F, size: 0x8, addend: 0x0, symName: __ZNKSt3__122__compressed_pair_elemImLi0ELb0EE5__getB7v160006Ev, symObjAddr: 0x9910, symBinAddr: 0x10000A0E8, symSize: 0x14 }
  - { offsetInCU: 0x182A5, offset: 0x182A5, size: 0x8, addend: 0x0, symName: __ZNKSt3__117__compressed_pairIPPNS_16__hash_node_baseIPNS_11__hash_nodeINS_12basic_stringIcNS_11char_traitsIcEENS_9allocatorIcEEEEPvEEEENS_25__bucket_list_deallocatorINS6_ISD_EEEEE5firstB7v160006Ev, symObjAddr: 0x9924, symBinAddr: 0x10000A0FC, symSize: 0x24 }
  - { offsetInCU: 0x182CB, offset: 0x182CB, size: 0x8, addend: 0x0, symName: __ZNKSt3__122__compressed_pair_elemIPPNS_16__hash_node_baseIPNS_11__hash_nodeINS_12basic_stringIcNS_11char_traitsIcEENS_9allocatorIcEEEEPvEEEELi0ELb0EE5__getB7v160006Ev, symObjAddr: 0x9948, symBinAddr: 0x10000A120, symSize: 0x14 }
  - { offsetInCU: 0x182F1, offset: 0x182F1, size: 0x8, addend: 0x0, symName: __ZNSt3__117__compressed_pairIfNS_8equal_toINS_12basic_stringIcNS_11char_traitsIcEENS_9allocatorIcEEEEEEE6secondB7v160006Ev, symObjAddr: 0x995C, symBinAddr: 0x10000A134, symSize: 0x24 }
  - { offsetInCU: 0x18317, offset: 0x18317, size: 0x8, addend: 0x0, symName: __ZNSt3__122__compressed_pair_elemINS_8equal_toINS_12basic_stringIcNS_11char_traitsIcEENS_9allocatorIcEEEEEELi1ELb1EE5__getB7v160006Ev, symObjAddr: 0x9980, symBinAddr: 0x10000A158, symSize: 0x14 }
  - { offsetInCU: 0x1833D, offset: 0x1833D, size: 0x8, addend: 0x0, symName: __ZNSt3__111char_traitsIcE7compareEPKcS3_m, symObjAddr: 0x9ADC, symBinAddr: 0x10000A2B4, symSize: 0x6C }
  - { offsetInCU: 0x1837C, offset: 0x1837C, size: 0x8, addend: 0x0, symName: __ZNSt3__116allocator_traitsINS_9allocatorINS_11__hash_nodeINS_12basic_stringIcNS_11char_traitsIcEENS1_IcEEEEPvEEEEE8allocateB7v160006ERSA_m, symObjAddr: 0x9B7C, symBinAddr: 0x10000A354, symSize: 0x2C }
  - { offsetInCU: 0x183AF, offset: 0x183AF, size: 0x8, addend: 0x0, symName: __ZNSt3__122__hash_node_destructorINS_9allocatorINS_11__hash_nodeINS_12basic_stringIcNS_11char_traitsIcEENS1_IcEEEEPvEEEEEC1B7v160006ERSA_b, symObjAddr: 0x9BA8, symBinAddr: 0x10000A380, symSize: 0x48 }
  - { offsetInCU: 0x183FC, offset: 0x183FC, size: 0x8, addend: 0x0, symName: __ZNSt3__110unique_ptrINS_11__hash_nodeINS_12basic_stringIcNS_11char_traitsIcEENS_9allocatorIcEEEEPvEENS_22__hash_node_destructorINS5_IS9_EEEEEC1B7v160006ILb1EvEEPS9_NS_16__dependent_typeINS_27__unique_ptr_deleter_sfinaeISC_EEXT_EE20__good_rval_ref_typeE, symObjAddr: 0x9BF0, symBinAddr: 0x10000A3C8, symSize: 0x3C }
  - { offsetInCU: 0x1844D, offset: 0x1844D, size: 0x8, addend: 0x0, symName: __ZNSt3__116allocator_traitsINS_9allocatorINS_11__hash_nodeINS_12basic_stringIcNS_11char_traitsIcEENS1_IcEEEEPvEEEEE9constructB7v160006IS7_JS7_EvEEvRSA_PT_DpOT0_, symObjAddr: 0x9C2C, symBinAddr: 0x10000A404, symSize: 0x34 }
  - { offsetInCU: 0x184A4, offset: 0x184A4, size: 0x8, addend: 0x0, symName: __ZNSt3__110unique_ptrINS_11__hash_nodeINS_12basic_stringIcNS_11char_traitsIcEENS_9allocatorIcEEEEPvEENS_22__hash_node_destructorINS5_IS9_EEEEE11get_deleterB7v160006Ev, symObjAddr: 0x9C60, symBinAddr: 0x10000A438, symSize: 0x24 }
  - { offsetInCU: 0x184CA, offset: 0x184CA, size: 0x8, addend: 0x0, symName: __ZNSt3__19allocatorINS_11__hash_nodeINS_12basic_stringIcNS_11char_traitsIcEENS0_IcEEEEPvEEE8allocateB7v160006Em, symObjAddr: 0x9C84, symBinAddr: 0x10000A45C, symSize: 0x5C }
  - { offsetInCU: 0x18508, offset: 0x18508, size: 0x8, addend: 0x0, symName: __ZNSt3__116allocator_traitsINS_9allocatorINS_11__hash_nodeINS_12basic_stringIcNS_11char_traitsIcEENS1_IcEEEEPvEEEEE8max_sizeB7v160006ISA_vEEmRKSA_, symObjAddr: 0x9CE0, symBinAddr: 0x10000A4B8, symSize: 0x24 }
  - { offsetInCU: 0x18536, offset: 0x18536, size: 0x8, addend: 0x0, symName: __ZNKSt3__19allocatorINS_11__hash_nodeINS_12basic_stringIcNS_11char_traitsIcEENS0_IcEEEEPvEEE8max_sizeB7v160006Ev, symObjAddr: 0x9D04, symBinAddr: 0x10000A4DC, symSize: 0x18 }
  - { offsetInCU: 0x1855C, offset: 0x1855C, size: 0x8, addend: 0x0, symName: __ZNSt3__122__hash_node_destructorINS_9allocatorINS_11__hash_nodeINS_12basic_stringIcNS_11char_traitsIcEENS1_IcEEEEPvEEEEEC2B7v160006ERSA_b, symObjAddr: 0x9D1C, symBinAddr: 0x10000A4F4, symSize: 0x38 }
  - { offsetInCU: 0x185A4, offset: 0x185A4, size: 0x8, addend: 0x0, symName: __ZNSt3__110unique_ptrINS_11__hash_nodeINS_12basic_stringIcNS_11char_traitsIcEENS_9allocatorIcEEEEPvEENS_22__hash_node_destructorINS5_IS9_EEEEEC2B7v160006ILb1EvEEPS9_NS_16__dependent_typeINS_27__unique_ptr_deleter_sfinaeISC_EEXT_EE20__good_rval_ref_typeE, symObjAddr: 0x9D54, symBinAddr: 0x10000A52C, symSize: 0x48 }
  - { offsetInCU: 0x185F5, offset: 0x185F5, size: 0x8, addend: 0x0, symName: __ZNSt3__117__compressed_pairIPNS_11__hash_nodeINS_12basic_stringIcNS_11char_traitsIcEENS_9allocatorIcEEEEPvEENS_22__hash_node_destructorINS5_IS9_EEEEEC1B7v160006IRSA_SD_EEOT_OT0_, symObjAddr: 0x9D9C, symBinAddr: 0x10000A574, symSize: 0x3C }
  - { offsetInCU: 0x1864D, offset: 0x1864D, size: 0x8, addend: 0x0, symName: __ZNSt3__117__compressed_pairIPNS_11__hash_nodeINS_12basic_stringIcNS_11char_traitsIcEENS_9allocatorIcEEEEPvEENS_22__hash_node_destructorINS5_IS9_EEEEEC2B7v160006IRSA_SD_EEOT_OT0_, symObjAddr: 0x9DD8, symBinAddr: 0x10000A5B0, symSize: 0x48 }
  - { offsetInCU: 0x186A5, offset: 0x186A5, size: 0x8, addend: 0x0, symName: __ZNSt3__122__compressed_pair_elemIPNS_11__hash_nodeINS_12basic_stringIcNS_11char_traitsIcEENS_9allocatorIcEEEEPvEELi0ELb0EEC2B7v160006IRSA_vEEOT_, symObjAddr: 0x9E20, symBinAddr: 0x10000A5F8, symSize: 0x24 }
  - { offsetInCU: 0x186E7, offset: 0x186E7, size: 0x8, addend: 0x0, symName: __ZNSt3__122__compressed_pair_elemINS_22__hash_node_destructorINS_9allocatorINS_11__hash_nodeINS_12basic_stringIcNS_11char_traitsIcEENS2_IcEEEEPvEEEEEELi1ELb0EEC2B7v160006ISC_vEEOT_, symObjAddr: 0x9E44, symBinAddr: 0x10000A61C, symSize: 0x24 }
  - { offsetInCU: 0x18729, offset: 0x18729, size: 0x8, addend: 0x0, symName: __ZNSt3__19allocatorINS_11__hash_nodeINS_12basic_stringIcNS_11char_traitsIcEENS0_IcEEEEPvEEE9constructB7v160006IS6_JS6_EEEvPT_DpOT0_, symObjAddr: 0x9E68, symBinAddr: 0x10000A640, symSize: 0x30 }
  - { offsetInCU: 0x1877F, offset: 0x1877F, size: 0x8, addend: 0x0, symName: __ZNSt3__112basic_stringIcNS_11char_traitsIcEENS_9allocatorIcEEEC1B7v160006EOS5_, symObjAddr: 0x9E98, symBinAddr: 0x10000A670, symSize: 0x34 }
  - { offsetInCU: 0x187B8, offset: 0x187B8, size: 0x8, addend: 0x0, symName: __ZNSt3__112basic_stringIcNS_11char_traitsIcEENS_9allocatorIcEEEC2B7v160006EOS5_, symObjAddr: 0x9ECC, symBinAddr: 0x10000A6A4, symSize: 0x84 }
  - { offsetInCU: 0x187F1, offset: 0x187F1, size: 0x8, addend: 0x0, symName: __ZNSt3__112basic_stringIcNS_11char_traitsIcEENS_9allocatorIcEEE14__default_initB7v160006Ev, symObjAddr: 0x9F50, symBinAddr: 0x10000A728, symSize: 0x40 }
  - { offsetInCU: 0x18817, offset: 0x18817, size: 0x8, addend: 0x0, symName: __ZNSt3__117__compressed_pairINS_12basic_stringIcNS_11char_traitsIcEENS_9allocatorIcEEE5__repES5_E5firstB7v160006Ev, symObjAddr: 0x9FA4, symBinAddr: 0x10000A77C, symSize: 0x24 }
  - { offsetInCU: 0x1883D, offset: 0x1883D, size: 0x8, addend: 0x0, symName: __ZNSt3__122__compressed_pair_elemINS_12basic_stringIcNS_11char_traitsIcEENS_9allocatorIcEEE5__repELi0ELb0EE5__getB7v160006Ev, symObjAddr: 0x9FC8, symBinAddr: 0x10000A7A0, symSize: 0x14 }
  - { offsetInCU: 0x18863, offset: 0x18863, size: 0x8, addend: 0x0, symName: __ZNSt3__117__compressed_pairIPNS_11__hash_nodeINS_12basic_stringIcNS_11char_traitsIcEENS_9allocatorIcEEEEPvEENS_22__hash_node_destructorINS5_IS9_EEEEE6secondB7v160006Ev, symObjAddr: 0x9FDC, symBinAddr: 0x10000A7B4, symSize: 0x28 }
  - { offsetInCU: 0x18889, offset: 0x18889, size: 0x8, addend: 0x0, symName: __ZNSt3__122__compressed_pair_elemINS_22__hash_node_destructorINS_9allocatorINS_11__hash_nodeINS_12basic_stringIcNS_11char_traitsIcEENS2_IcEEEEPvEEEEEELi1ELb0EE5__getB7v160006Ev, symObjAddr: 0xA004, symBinAddr: 0x10000A7DC, symSize: 0x14 }
  - { offsetInCU: 0x188AF, offset: 0x188AF, size: 0x8, addend: 0x0, symName: __ZNSt3__117__compressed_pairImNS_4hashINS_12basic_stringIcNS_11char_traitsIcEENS_9allocatorIcEEEEEEE5firstB7v160006Ev, symObjAddr: 0xA018, symBinAddr: 0x10000A7F0, symSize: 0x24 }
  - { offsetInCU: 0x188D5, offset: 0x188D5, size: 0x8, addend: 0x0, symName: __ZNSt3__117__compressed_pairIfNS_8equal_toINS_12basic_stringIcNS_11char_traitsIcEENS_9allocatorIcEEEEEEE5firstB7v160006Ev, symObjAddr: 0xA03C, symBinAddr: 0x10000A814, symSize: 0x24 }
  - { offsetInCU: 0x188FB, offset: 0x188FB, size: 0x8, addend: 0x0, symName: __ZNSt3__122__compressed_pair_elemIfLi0ELb0EE5__getB7v160006Ev, symObjAddr: 0xA060, symBinAddr: 0x10000A838, symSize: 0x14 }
  - { offsetInCU: 0x18921, offset: 0x18921, size: 0x8, addend: 0x0, symName: __ZNSt3__112__hash_tableINS_12basic_stringIcNS_11char_traitsIcEENS_9allocatorIcEEEENS_4hashIS6_EENS_8equal_toIS6_EENS4_IS6_EEE8__rehashILb1EEEvm, symObjAddr: 0xA074, symBinAddr: 0x10000A84C, symSize: 0x1A8 }
  - { offsetInCU: 0x18971, offset: 0x18971, size: 0x8, addend: 0x0, symName: __ZNSt3__112__hash_tableINS_12basic_stringIcNS_11char_traitsIcEENS_9allocatorIcEEEENS_4hashIS6_EENS_8equal_toIS6_EENS4_IS6_EEE11__do_rehashILb1EEEvm, symObjAddr: 0xA21C, symBinAddr: 0x10000A9F4, symSize: 0x290 }
  - { offsetInCU: 0x18A54, offset: 0x18A54, size: 0x8, addend: 0x0, symName: __ZNSt3__110unique_ptrIA_PNS_16__hash_node_baseIPNS_11__hash_nodeINS_12basic_stringIcNS_11char_traitsIcEENS_9allocatorIcEEEEPvEEEENS_25__bucket_list_deallocatorINS6_ISD_EEEEE11get_deleterB7v160006Ev, symObjAddr: 0xA528, symBinAddr: 0x10000AD00, symSize: 0x24 }
  - { offsetInCU: 0x18A7A, offset: 0x18A7A, size: 0x8, addend: 0x0, symName: __ZNSt3__110unique_ptrIA_PNS_16__hash_node_baseIPNS_11__hash_nodeINS_12basic_stringIcNS_11char_traitsIcEENS_9allocatorIcEEEEPvEEEENS_25__bucket_list_deallocatorINS6_ISD_EEEEE5resetB7v160006IPSD_EENS_9enable_ifIXsr28_CheckArrayPointerConversionIT_EE5valueEvE4typeESM_, symObjAddr: 0xA54C, symBinAddr: 0x10000AD24, symSize: 0x78 }
  - { offsetInCU: 0x18AC7, offset: 0x18AC7, size: 0x8, addend: 0x0, symName: __ZNSt3__116allocator_traitsINS_9allocatorIPNS_16__hash_node_baseIPNS_11__hash_nodeINS_12basic_stringIcNS_11char_traitsIcEENS1_IcEEEEPvEEEEEEE8allocateB7v160006ERSE_m, symObjAddr: 0xA5C4, symBinAddr: 0x10000AD9C, symSize: 0x2C }
  - { offsetInCU: 0x18AFA, offset: 0x18AFA, size: 0x8, addend: 0x0, symName: __ZNSt3__19allocatorIPNS_16__hash_node_baseIPNS_11__hash_nodeINS_12basic_stringIcNS_11char_traitsIcEENS0_IcEEEEPvEEEEE8allocateB7v160006Em, symObjAddr: 0xA5F0, symBinAddr: 0x10000ADC8, symSize: 0x58 }
  - { offsetInCU: 0x18B38, offset: 0x18B38, size: 0x8, addend: 0x0, symName: __ZNSt3__116allocator_traitsINS_9allocatorIPNS_16__hash_node_baseIPNS_11__hash_nodeINS_12basic_stringIcNS_11char_traitsIcEENS1_IcEEEEPvEEEEEEE8max_sizeB7v160006ISE_vEEmRKSE_, symObjAddr: 0xA648, symBinAddr: 0x10000AE20, symSize: 0x24 }
  - { offsetInCU: 0x18B66, offset: 0x18B66, size: 0x8, addend: 0x0, symName: __ZNKSt3__19allocatorIPNS_16__hash_node_baseIPNS_11__hash_nodeINS_12basic_stringIcNS_11char_traitsIcEENS0_IcEEEEPvEEEEE8max_sizeB7v160006Ev, symObjAddr: 0xA66C, symBinAddr: 0x10000AE44, symSize: 0x14 }
  - { offsetInCU: 0x18B8C, offset: 0x18B8C, size: 0x8, addend: 0x0, symName: __ZNKSt3__117__compressed_pairIPNS_11__hash_nodeINS_12basic_stringIcNS_11char_traitsIcEENS_9allocatorIcEEEEPvEENS_22__hash_node_destructorINS5_IS9_EEEEE5firstB7v160006Ev, symObjAddr: 0xA69C, symBinAddr: 0x10000AE74, symSize: 0x24 }
  - { offsetInCU: 0x18BB2, offset: 0x18BB2, size: 0x8, addend: 0x0, symName: __ZNKSt3__122__compressed_pair_elemIPNS_11__hash_nodeINS_12basic_stringIcNS_11char_traitsIcEENS_9allocatorIcEEEEPvEELi0ELb0EE5__getB7v160006Ev, symObjAddr: 0xA6C0, symBinAddr: 0x10000AE98, symSize: 0x14 }
  - { offsetInCU: 0x18BD8, offset: 0x18BD8, size: 0x8, addend: 0x0, symName: __ZNSt3__117__compressed_pairIPNS_11__hash_nodeINS_12basic_stringIcNS_11char_traitsIcEENS_9allocatorIcEEEEPvEENS_22__hash_node_destructorINS5_IS9_EEEEE5firstB7v160006Ev, symObjAddr: 0xA6D4, symBinAddr: 0x10000AEAC, symSize: 0x24 }
  - { offsetInCU: 0x18BFE, offset: 0x18BFE, size: 0x8, addend: 0x0, symName: __ZNSt3__122__compressed_pair_elemIPNS_11__hash_nodeINS_12basic_stringIcNS_11char_traitsIcEENS_9allocatorIcEEEEPvEELi0ELb0EE5__getB7v160006Ev, symObjAddr: 0xA6F8, symBinAddr: 0x10000AED0, symSize: 0x14 }
  - { offsetInCU: 0x18C24, offset: 0x18C24, size: 0x8, addend: 0x0, symName: __ZNSt3__110unique_ptrINS_11__hash_nodeINS_12basic_stringIcNS_11char_traitsIcEENS_9allocatorIcEEEEPvEENS_22__hash_node_destructorINS5_IS9_EEEEED2B7v160006Ev, symObjAddr: 0xA70C, symBinAddr: 0x10000AEE4, symSize: 0x30 }
  - { offsetInCU: 0x18C4E, offset: 0x18C4E, size: 0x8, addend: 0x0, symName: __ZNSt3__110unique_ptrINS_11__hash_nodeINS_12basic_stringIcNS_11char_traitsIcEENS_9allocatorIcEEEEPvEENS_22__hash_node_destructorINS5_IS9_EEEEE5resetB7v160006EPS9_, symObjAddr: 0xA73C, symBinAddr: 0x10000AF14, symSize: 0x78 }
  - { offsetInCU: 0x18C92, offset: 0x18C92, size: 0x8, addend: 0x0, symName: __ZNSt3__122__hash_node_destructorINS_9allocatorINS_11__hash_nodeINS_12basic_stringIcNS_11char_traitsIcEENS1_IcEEEEPvEEEEEclB7v160006EPS9_, symObjAddr: 0xA7B4, symBinAddr: 0x10000AF8C, symSize: 0x88 }
  - { offsetInCU: 0x18CC7, offset: 0x18CC7, size: 0x8, addend: 0x0, symName: __ZNSt3__115__hash_iteratorIPNS_11__hash_nodeINS_12basic_stringIcNS_11char_traitsIcEENS_9allocatorIcEEEEPvEEEC2B7v160006EPNS_16__hash_node_baseISA_EEPKv, symObjAddr: 0xA83C, symBinAddr: 0x10000B014, symSize: 0x24 }
  - { offsetInCU: 0x18D0F, offset: 0x18D0F, size: 0x8, addend: 0x0, symName: __ZNSt3__14pairINS_15__hash_iteratorIPNS_11__hash_nodeINS_12basic_stringIcNS_11char_traitsIcEENS_9allocatorIcEEEEPvEEEEbEC2B7v160006ISC_RbLS9_0EEEOT_OT0_, symObjAddr: 0xA860, symBinAddr: 0x10000B038, symSize: 0x38 }
  - { offsetInCU: 0x18D6D, offset: 0x18D6D, size: 0x8, addend: 0x0, symName: __ZNSt3__14pairINS_21__hash_const_iteratorIPNS_11__hash_nodeINS_12basic_stringIcNS_11char_traitsIcEENS_9allocatorIcEEEEPvEEEEbEC2B7v160006INS_15__hash_iteratorISB_EEbLS9_0EEEONS0_IT_T0_EE, symObjAddr: 0xA898, symBinAddr: 0x10000B070, symSize: 0x44 }
  - { offsetInCU: 0x18DBE, offset: 0x18DBE, size: 0x8, addend: 0x0, symName: __ZNSt3__121__hash_const_iteratorIPNS_11__hash_nodeINS_12basic_stringIcNS_11char_traitsIcEENS_9allocatorIcEEEEPvEEEC1B7v160006ERKNS_15__hash_iteratorISA_EE, symObjAddr: 0xA8DC, symBinAddr: 0x10000B0B4, symSize: 0x34 }
  - { offsetInCU: 0x18DF7, offset: 0x18DF7, size: 0x8, addend: 0x0, symName: __ZNSt3__121__hash_const_iteratorIPNS_11__hash_nodeINS_12basic_stringIcNS_11char_traitsIcEENS_9allocatorIcEEEEPvEEEC2B7v160006ERKNS_15__hash_iteratorISA_EE, symObjAddr: 0xA910, symBinAddr: 0x10000B0E8, symSize: 0x24 }
  - { offsetInCU: 0x18E4E, offset: 0x18E4E, size: 0x8, addend: 0x0, symName: __ZNKSt3__16chrono10time_pointINS0_12steady_clockENS0_8durationIxNS_5ratioILl1ELl1000000000EEEEEE16time_since_epochB7v160006Ev, symObjAddr: 0xA9A4, symBinAddr: 0x10000B17C, symSize: 0x20 }
  - { offsetInCU: 0x18E74, offset: 0x18E74, size: 0x8, addend: 0x0, symName: __ZNSt3__16chrono8durationIxNS_5ratioILl1ELl1000000000EEEEC1B7v160006IxEERKT_PNS_9enable_ifIXaasr14is_convertibleIS8_xEE5valueooL_ZNS_17integral_constantIbLb0EE5valueEEntsr23treat_as_floating_pointIS6_EE5valueEvE4typeE, symObjAddr: 0xA9C4, symBinAddr: 0x10000B19C, symSize: 0x3C }
  - { offsetInCU: 0x18EC0, offset: 0x18EC0, size: 0x8, addend: 0x0, symName: __ZNSt3__16chrono8durationIxNS_5ratioILl1ELl1000000000EEEEC2B7v160006IxEERKT_PNS_9enable_ifIXaasr14is_convertibleIS8_xEE5valueooL_ZNS_17integral_constantIbLb0EE5valueEEntsr23treat_as_floating_pointIS6_EE5valueEvE4typeE, symObjAddr: 0xAA00, symBinAddr: 0x10000B1D8, symSize: 0x28 }
  - { offsetInCU: 0x18F0C, offset: 0x18F0C, size: 0x8, addend: 0x0, symName: __ZNSt3__18ios_base9precisionB7v160006El, symObjAddr: 0xAA28, symBinAddr: 0x10000B200, symSize: 0x2C }
  - { offsetInCU: 0x18F52, offset: 0x18F52, size: 0x8, addend: 0x0, symName: __ZNSt3__112__hash_tableINS_12basic_stringIcNS_11char_traitsIcEENS_9allocatorIcEEEENS_4hashIS6_EENS_8equal_toIS6_EENS4_IS6_EEE4findIS6_EENS_15__hash_iteratorIPNS_11__hash_nodeIS6_PvEEEERKT_, symObjAddr: 0xAA54, symBinAddr: 0x10000B22C, symSize: 0x1B4 }
  - { offsetInCU: 0x18FDC, offset: 0x18FDC, size: 0x8, addend: 0x0, symName: __ZNSt3__112__hash_tableINS_12basic_stringIcNS_11char_traitsIcEENS_9allocatorIcEEEENS_4hashIS6_EENS_8equal_toIS6_EENS4_IS6_EEE3endEv, symObjAddr: 0xAC08, symBinAddr: 0x10000B3E0, symSize: 0x30 }
  - { offsetInCU: 0x19004, offset: 0x19004, size: 0x8, addend: 0x0, symName: __ZNSt3__16vectorI6bignumNS_9allocatorIS1_EEEC2B7v160006Ev, symObjAddr: 0xAC68, symBinAddr: 0x10000B440, symSize: 0x58 }
  - { offsetInCU: 0x1902E, offset: 0x1902E, size: 0x8, addend: 0x0, symName: __ZNSt3__117__compressed_pairIP6bignumNS_9allocatorIS1_EEEC1B7v160006IDnNS_18__default_init_tagEEEOT_OT0_, symObjAddr: 0xACC0, symBinAddr: 0x10000B498, symSize: 0x3C }
  - { offsetInCU: 0x19086, offset: 0x19086, size: 0x8, addend: 0x0, symName: __ZNSt3__117__compressed_pairIP6bignumNS_9allocatorIS1_EEEC2B7v160006IDnNS_18__default_init_tagEEEOT_OT0_, symObjAddr: 0xAD0C, symBinAddr: 0x10000B4E4, symSize: 0x40 }
  - { offsetInCU: 0x190DE, offset: 0x190DE, size: 0x8, addend: 0x0, symName: __ZNSt3__122__compressed_pair_elemIP6bignumLi0ELb0EEC2B7v160006IDnvEEOT_, symObjAddr: 0xAD4C, symBinAddr: 0x10000B524, symSize: 0x1C }
  - { offsetInCU: 0x19120, offset: 0x19120, size: 0x8, addend: 0x0, symName: __ZNSt3__122__compressed_pair_elemINS_9allocatorI6bignumEELi1ELb1EEC2B7v160006ENS_18__default_init_tagE, symObjAddr: 0xAD68, symBinAddr: 0x10000B540, symSize: 0x2C }
  - { offsetInCU: 0x19154, offset: 0x19154, size: 0x8, addend: 0x0, symName: __ZNSt3__19allocatorI6bignumEC2B7v160006Ev, symObjAddr: 0xAD94, symBinAddr: 0x10000B56C, symSize: 0x2C }
  - { offsetInCU: 0x1917E, offset: 0x1917E, size: 0x8, addend: 0x0, symName: __ZNSt3__116__non_trivial_ifILb1ENS_9allocatorI6bignumEEEC2B7v160006Ev, symObjAddr: 0xADC0, symBinAddr: 0x10000B598, symSize: 0x14 }
  - { offsetInCU: 0x191A8, offset: 0x191A8, size: 0x8, addend: 0x0, symName: __ZNSt3__16vectorI6bignumNS_9allocatorIS1_EEED2B7v160006Ev, symObjAddr: 0xADD4, symBinAddr: 0x10000B5AC, symSize: 0x44 }
  - { offsetInCU: 0x191D2, offset: 0x191D2, size: 0x8, addend: 0x0, symName: __ZNSt3__16vectorI6bignumNS_9allocatorIS1_EEE16__destroy_vectorC1ERS4_, symObjAddr: 0xAE18, symBinAddr: 0x10000B5F0, symSize: 0x34 }
  - { offsetInCU: 0x1920B, offset: 0x1920B, size: 0x8, addend: 0x0, symName: __ZNSt3__16vectorI6bignumNS_9allocatorIS1_EEE16__destroy_vectorclB7v160006Ev, symObjAddr: 0xAE4C, symBinAddr: 0x10000B624, symSize: 0x9C }
  - { offsetInCU: 0x19231, offset: 0x19231, size: 0x8, addend: 0x0, symName: __ZNSt3__16vectorI6bignumNS_9allocatorIS1_EEE16__destroy_vectorC2ERS4_, symObjAddr: 0xAEE8, symBinAddr: 0x10000B6C0, symSize: 0x20 }
  - { offsetInCU: 0x1926A, offset: 0x1926A, size: 0x8, addend: 0x0, symName: __ZNKSt3__16vectorI6bignumNS_9allocatorIS1_EEE17__annotate_deleteB7v160006Ev, symObjAddr: 0xAF08, symBinAddr: 0x10000B6E0, symSize: 0xD4 }
  - { offsetInCU: 0x19290, offset: 0x19290, size: 0x8, addend: 0x0, symName: __ZNSt3__16vectorI6bignumNS_9allocatorIS1_EEE7__clearB7v160006Ev, symObjAddr: 0xAFEC, symBinAddr: 0x10000B7C4, symSize: 0x28 }
  - { offsetInCU: 0x192B6, offset: 0x192B6, size: 0x8, addend: 0x0, symName: __ZNSt3__116allocator_traitsINS_9allocatorI6bignumEEE10deallocateB7v160006ERS3_PS2_m, symObjAddr: 0xB014, symBinAddr: 0x10000B7EC, symSize: 0x34 }
  - { offsetInCU: 0x192F8, offset: 0x192F8, size: 0x8, addend: 0x0, symName: __ZNSt3__16vectorI6bignumNS_9allocatorIS1_EEE7__allocB7v160006Ev, symObjAddr: 0xB048, symBinAddr: 0x10000B820, symSize: 0x28 }
  - { offsetInCU: 0x1931E, offset: 0x1931E, size: 0x8, addend: 0x0, symName: __ZNKSt3__16vectorI6bignumNS_9allocatorIS1_EEE8capacityB7v160006Ev, symObjAddr: 0xB070, symBinAddr: 0x10000B848, symSize: 0x40 }
  - { offsetInCU: 0x19344, offset: 0x19344, size: 0x8, addend: 0x0, symName: __ZNKSt3__16vectorI6bignumNS_9allocatorIS1_EEE31__annotate_contiguous_containerB7v160006EPKvS6_S6_S6_, symObjAddr: 0xB0B0, symBinAddr: 0x10000B888, symSize: 0x20 }
  - { offsetInCU: 0x19396, offset: 0x19396, size: 0x8, addend: 0x0, symName: __ZNKSt3__16vectorI6bignumNS_9allocatorIS1_EEE4dataB7v160006Ev, symObjAddr: 0xB0D0, symBinAddr: 0x10000B8A8, symSize: 0x28 }
  - { offsetInCU: 0x193BC, offset: 0x193BC, size: 0x8, addend: 0x0, symName: __ZNSt3__16vectorI6bignumNS_9allocatorIS1_EEE22__base_destruct_at_endB7v160006EPS1_, symObjAddr: 0xB10C, symBinAddr: 0x10000B8E4, symSize: 0x8C }
  - { offsetInCU: 0x19400, offset: 0x19400, size: 0x8, addend: 0x0, symName: __ZNSt3__116allocator_traitsINS_9allocatorI6bignumEEE7destroyB7v160006IS2_vEEvRS3_PT_, symObjAddr: 0xB198, symBinAddr: 0x10000B970, symSize: 0x2C }
  - { offsetInCU: 0x1943D, offset: 0x1943D, size: 0x8, addend: 0x0, symName: __ZNSt3__19allocatorI6bignumE7destroyB7v160006EPS1_, symObjAddr: 0xB1C4, symBinAddr: 0x10000B99C, symSize: 0x28 }
  - { offsetInCU: 0x19471, offset: 0x19471, size: 0x8, addend: 0x0, symName: __ZNSt3__19allocatorI6bignumE10deallocateB7v160006EPS1_m, symObjAddr: 0xB1EC, symBinAddr: 0x10000B9C4, symSize: 0x44 }
  - { offsetInCU: 0x194B3, offset: 0x194B3, size: 0x8, addend: 0x0, symName: __ZNSt3__117__compressed_pairIP6bignumNS_9allocatorIS1_EEE6secondB7v160006Ev, symObjAddr: 0xB230, symBinAddr: 0x10000BA08, symSize: 0x24 }
  - { offsetInCU: 0x194D9, offset: 0x194D9, size: 0x8, addend: 0x0, symName: __ZNSt3__122__compressed_pair_elemINS_9allocatorI6bignumEELi1ELb1EE5__getB7v160006Ev, symObjAddr: 0xB254, symBinAddr: 0x10000BA2C, symSize: 0x14 }
  - { offsetInCU: 0x194FF, offset: 0x194FF, size: 0x8, addend: 0x0, symName: __ZNKSt3__16vectorI6bignumNS_9allocatorIS1_EEE9__end_capB7v160006Ev, symObjAddr: 0xB268, symBinAddr: 0x10000BA40, symSize: 0x28 }
  - { offsetInCU: 0x19525, offset: 0x19525, size: 0x8, addend: 0x0, symName: __ZNKSt3__117__compressed_pairIP6bignumNS_9allocatorIS1_EEE5firstB7v160006Ev, symObjAddr: 0xB290, symBinAddr: 0x10000BA68, symSize: 0x24 }
  - { offsetInCU: 0x1954B, offset: 0x1954B, size: 0x8, addend: 0x0, symName: __ZNKSt3__122__compressed_pair_elemIP6bignumLi0ELb0EE5__getB7v160006Ev, symObjAddr: 0xB2B4, symBinAddr: 0x10000BA8C, symSize: 0x14 }
  - { offsetInCU: 0x19571, offset: 0x19571, size: 0x8, addend: 0x0, symName: __ZNSt3__16vectorI6bignumNS_9allocatorIS1_EEE9__end_capB7v160006Ev, symObjAddr: 0xB2C8, symBinAddr: 0x10000BAA0, symSize: 0x28 }
  - { offsetInCU: 0x19597, offset: 0x19597, size: 0x8, addend: 0x0, symName: __ZNSt3__16vectorI6bignumNS_9allocatorIS1_EEE22__construct_one_at_endB7v160006IJRKS1_EEEvDpOT_, symObjAddr: 0xB2F0, symBinAddr: 0x10000BAC8, symSize: 0x90 }
  - { offsetInCU: 0x195E6, offset: 0x195E6, size: 0x8, addend: 0x0, symName: __ZNSt3__16vectorI6bignumNS_9allocatorIS1_EEE21__push_back_slow_pathIRKS1_EEvOT_, symObjAddr: 0xB380, symBinAddr: 0x10000BB58, symSize: 0xD8 }
  - { offsetInCU: 0x19644, offset: 0x19644, size: 0x8, addend: 0x0, symName: __ZNSt3__117__compressed_pairIP6bignumNS_9allocatorIS1_EEE5firstB7v160006Ev, symObjAddr: 0xB458, symBinAddr: 0x10000BC30, symSize: 0x24 }
  - { offsetInCU: 0x1966A, offset: 0x1966A, size: 0x8, addend: 0x0, symName: __ZNSt3__122__compressed_pair_elemIP6bignumLi0ELb0EE5__getB7v160006Ev, symObjAddr: 0xB47C, symBinAddr: 0x10000BC54, symSize: 0x14 }
  - { offsetInCU: 0x196A9, offset: 0x196A9, size: 0x8, addend: 0x0, symName: __ZNSt3__16vectorI6bignumNS_9allocatorIS1_EEE21_ConstructTransactionC1B7v160006ERS4_m, symObjAddr: 0xB490, symBinAddr: 0x10000BC68, symSize: 0x3C }
  - { offsetInCU: 0x196F1, offset: 0x196F1, size: 0x8, addend: 0x0, symName: __ZNSt3__116allocator_traitsINS_9allocatorI6bignumEEE9constructB7v160006IS2_JRKS2_EvEEvRS3_PT_DpOT0_, symObjAddr: 0xB4CC, symBinAddr: 0x10000BCA4, symSize: 0x34 }
  - { offsetInCU: 0x19748, offset: 0x19748, size: 0x8, addend: 0x0, symName: __ZNSt3__16vectorI6bignumNS_9allocatorIS1_EEE21_ConstructTransactionD1B7v160006Ev, symObjAddr: 0xB500, symBinAddr: 0x10000BCD8, symSize: 0x2C }
  - { offsetInCU: 0x19772, offset: 0x19772, size: 0x8, addend: 0x0, symName: __ZNSt3__16vectorI6bignumNS_9allocatorIS1_EEE21_ConstructTransactionC2B7v160006ERS4_m, symObjAddr: 0xB52C, symBinAddr: 0x10000BD04, symSize: 0x4C }
  - { offsetInCU: 0x197BA, offset: 0x197BA, size: 0x8, addend: 0x0, symName: __ZNSt3__19allocatorI6bignumE9constructB7v160006IS1_JRKS1_EEEvPT_DpOT0_, symObjAddr: 0xB578, symBinAddr: 0x10000BD50, symSize: 0x30 }
  - { offsetInCU: 0x19810, offset: 0x19810, size: 0x8, addend: 0x0, symName: __ZNSt3__16vectorI6bignumNS_9allocatorIS1_EEE21_ConstructTransactionD2B7v160006Ev, symObjAddr: 0xB5A8, symBinAddr: 0x10000BD80, symSize: 0x20 }
  - { offsetInCU: 0x1983A, offset: 0x1983A, size: 0x8, addend: 0x0, symName: __ZNKSt3__16vectorI6bignumNS_9allocatorIS1_EEE11__recommendB7v160006Em, symObjAddr: 0xB5C8, symBinAddr: 0x10000BDA0, symSize: 0xB4 }
  - { offsetInCU: 0x1988F, offset: 0x1988F, size: 0x8, addend: 0x0, symName: __ZNSt3__114__split_bufferI6bignumRNS_9allocatorIS1_EEEC1EmmS4_, symObjAddr: 0xB67C, symBinAddr: 0x10000BE54, symSize: 0x44 }
  - { offsetInCU: 0x198E5, offset: 0x198E5, size: 0x8, addend: 0x0, symName: __ZNSt3__114__split_bufferI6bignumRNS_9allocatorIS1_EEED1Ev, symObjAddr: 0xB7D8, symBinAddr: 0x10000BFB0, symSize: 0x2C }
  - { offsetInCU: 0x19911, offset: 0x19911, size: 0x8, addend: 0x0, symName: __ZNKSt3__16vectorI6bignumNS_9allocatorIS1_EEE8max_sizeEv, symObjAddr: 0xB804, symBinAddr: 0x10000BFDC, symSize: 0x60 }
  - { offsetInCU: 0x19939, offset: 0x19939, size: 0x8, addend: 0x0, symName: __ZNKSt3__16vectorI6bignumNS_9allocatorIS1_EEE20__throw_length_errorB7v160006Ev, symObjAddr: 0xB864, symBinAddr: 0x10000C03C, symSize: 0x1C }
  - { offsetInCU: 0x19969, offset: 0x19969, size: 0x8, addend: 0x0, symName: __ZNSt3__116allocator_traitsINS_9allocatorI6bignumEEE8max_sizeB7v160006IS3_vEEmRKS3_, symObjAddr: 0xB880, symBinAddr: 0x10000C058, symSize: 0x24 }
  - { offsetInCU: 0x19997, offset: 0x19997, size: 0x8, addend: 0x0, symName: __ZNKSt3__16vectorI6bignumNS_9allocatorIS1_EEE7__allocB7v160006Ev, symObjAddr: 0xB8A4, symBinAddr: 0x10000C07C, symSize: 0x28 }
  - { offsetInCU: 0x199BD, offset: 0x199BD, size: 0x8, addend: 0x0, symName: __ZNKSt3__19allocatorI6bignumE8max_sizeB7v160006Ev, symObjAddr: 0xB8CC, symBinAddr: 0x10000C0A4, symSize: 0x18 }
  - { offsetInCU: 0x199E3, offset: 0x199E3, size: 0x8, addend: 0x0, symName: __ZNKSt3__117__compressed_pairIP6bignumNS_9allocatorIS1_EEE6secondB7v160006Ev, symObjAddr: 0xB8E4, symBinAddr: 0x10000C0BC, symSize: 0x24 }
  - { offsetInCU: 0x19A09, offset: 0x19A09, size: 0x8, addend: 0x0, symName: __ZNKSt3__122__compressed_pair_elemINS_9allocatorI6bignumEELi1ELb1EE5__getB7v160006Ev, symObjAddr: 0xB908, symBinAddr: 0x10000C0E0, symSize: 0x14 }
  - { offsetInCU: 0x19A2F, offset: 0x19A2F, size: 0x8, addend: 0x0, symName: __ZNSt3__114__split_bufferI6bignumRNS_9allocatorIS1_EEEC2EmmS4_, symObjAddr: 0xB91C, symBinAddr: 0x10000C0F4, symSize: 0xE0 }
  - { offsetInCU: 0x19AA2, offset: 0x19AA2, size: 0x8, addend: 0x0, symName: __ZNSt3__117__compressed_pairIP6bignumRNS_9allocatorIS1_EEEC1B7v160006IDnS5_EEOT_OT0_, symObjAddr: 0xB9FC, symBinAddr: 0x10000C1D4, symSize: 0x3C }
  - { offsetInCU: 0x19AFA, offset: 0x19AFA, size: 0x8, addend: 0x0, symName: __ZNSt3__114__split_bufferI6bignumRNS_9allocatorIS1_EEE7__allocB7v160006Ev, symObjAddr: 0xBA78, symBinAddr: 0x10000C250, symSize: 0x28 }
  - { offsetInCU: 0x19B20, offset: 0x19B20, size: 0x8, addend: 0x0, symName: __ZNSt3__114__split_bufferI6bignumRNS_9allocatorIS1_EEE9__end_capB7v160006Ev, symObjAddr: 0xBAA0, symBinAddr: 0x10000C278, symSize: 0x28 }
  - { offsetInCU: 0x19B46, offset: 0x19B46, size: 0x8, addend: 0x0, symName: __ZNSt3__117__compressed_pairIP6bignumRNS_9allocatorIS1_EEEC2B7v160006IDnS5_EEOT_OT0_, symObjAddr: 0xBAC8, symBinAddr: 0x10000C2A0, symSize: 0x48 }
  - { offsetInCU: 0x19B9E, offset: 0x19B9E, size: 0x8, addend: 0x0, symName: __ZNSt3__122__compressed_pair_elemIRNS_9allocatorI6bignumEELi1ELb0EEC2B7v160006IS4_vEEOT_, symObjAddr: 0xBB10, symBinAddr: 0x10000C2E8, symSize: 0x20 }
  - { offsetInCU: 0x19BE0, offset: 0x19BE0, size: 0x8, addend: 0x0, symName: __ZNSt3__19allocatorI6bignumE8allocateB7v160006Em, symObjAddr: 0xBB30, symBinAddr: 0x10000C308, symSize: 0x5C }
  - { offsetInCU: 0x19C14, offset: 0x19C14, size: 0x8, addend: 0x0, symName: __ZNSt3__117__compressed_pairIP6bignumRNS_9allocatorIS1_EEE6secondB7v160006Ev, symObjAddr: 0xBB8C, symBinAddr: 0x10000C364, symSize: 0x28 }
  - { offsetInCU: 0x19C3A, offset: 0x19C3A, size: 0x8, addend: 0x0, symName: __ZNSt3__122__compressed_pair_elemIRNS_9allocatorI6bignumEELi1ELb0EE5__getB7v160006Ev, symObjAddr: 0xBBB4, symBinAddr: 0x10000C38C, symSize: 0x18 }
  - { offsetInCU: 0x19C60, offset: 0x19C60, size: 0x8, addend: 0x0, symName: __ZNSt3__117__compressed_pairIP6bignumRNS_9allocatorIS1_EEE5firstB7v160006Ev, symObjAddr: 0xBBCC, symBinAddr: 0x10000C3A4, symSize: 0x24 }
  - { offsetInCU: 0x19C86, offset: 0x19C86, size: 0x8, addend: 0x0, symName: __ZNSt3__116reverse_iteratorIP6bignumEC1B7v160006ES2_, symObjAddr: 0xBD1C, symBinAddr: 0x10000C4F4, symSize: 0x34 }
  - { offsetInCU: 0x19CBE, offset: 0x19CBE, size: 0x8, addend: 0x0, symName: __ZNKSt3__116reverse_iteratorIP6bignumE4baseB7v160006Ev, symObjAddr: 0xBD50, symBinAddr: 0x10000C528, symSize: 0x18 }
  - { offsetInCU: 0x19CE4, offset: 0x19CE4, size: 0x8, addend: 0x0, symName: __ZNKSt3__16vectorI6bignumNS_9allocatorIS1_EEE14__annotate_newB7v160006Em, symObjAddr: 0xBDA4, symBinAddr: 0x10000C57C, symSize: 0xC8 }
  - { offsetInCU: 0x19D19, offset: 0x19D19, size: 0x8, addend: 0x0, symName: __ZNSt3__129_AllocatorDestroyRangeReverseINS_9allocatorI6bignumEENS_16reverse_iteratorIPS2_EEEC1B7v160006ERS3_RS6_S9_, symObjAddr: 0xBEC8, symBinAddr: 0x10000C6A0, symSize: 0x44 }
  - { offsetInCU: 0x19D70, offset: 0x19D70, size: 0x8, addend: 0x0, symName: __ZNSt3__116allocator_traitsINS_9allocatorI6bignumEEE9constructB7v160006IS2_JS2_EvEEvRS3_PT_DpOT0_, symObjAddr: 0xBF54, symBinAddr: 0x10000C72C, symSize: 0x34 }
  - { offsetInCU: 0x19DC7, offset: 0x19DC7, size: 0x8, addend: 0x0, symName: __ZNKSt3__116reverse_iteratorIP6bignumEdeB7v160006Ev, symObjAddr: 0xBFAC, symBinAddr: 0x10000C784, symSize: 0x28 }
  - { offsetInCU: 0x19DFB, offset: 0x19DFB, size: 0x8, addend: 0x0, symName: __ZNSt3__116reverse_iteratorIP6bignumEppB7v160006Ev, symObjAddr: 0xBFD4, symBinAddr: 0x10000C7AC, symSize: 0x20 }
  - { offsetInCU: 0x19E21, offset: 0x19E21, size: 0x8, addend: 0x0, symName: __ZNSt3__128__exception_guard_exceptionsINS_29_AllocatorDestroyRangeReverseINS_9allocatorI6bignumEENS_16reverse_iteratorIPS3_EEEEE10__completeB7v160006Ev, symObjAddr: 0xBFF4, symBinAddr: 0x10000C7CC, symSize: 0x1C }
  - { offsetInCU: 0x19E47, offset: 0x19E47, size: 0x8, addend: 0x0, symName: __ZNSt3__128__exception_guard_exceptionsINS_29_AllocatorDestroyRangeReverseINS_9allocatorI6bignumEENS_16reverse_iteratorIPS3_EEEEED1B7v160006Ev, symObjAddr: 0xC010, symBinAddr: 0x10000C7E8, symSize: 0x2C }
  - { offsetInCU: 0x19E71, offset: 0x19E71, size: 0x8, addend: 0x0, symName: __ZNSt3__128__exception_guard_exceptionsINS_29_AllocatorDestroyRangeReverseINS_9allocatorI6bignumEENS_16reverse_iteratorIPS3_EEEEEC1B7v160006ES8_, symObjAddr: 0xC03C, symBinAddr: 0x10000C814, symSize: 0x34 }
  - { offsetInCU: 0x19EAA, offset: 0x19EAA, size: 0x8, addend: 0x0, symName: __ZNSt3__128__exception_guard_exceptionsINS_29_AllocatorDestroyRangeReverseINS_9allocatorI6bignumEENS_16reverse_iteratorIPS3_EEEEEC2B7v160006ES8_, symObjAddr: 0xC070, symBinAddr: 0x10000C848, symSize: 0x30 }
  - { offsetInCU: 0x19EE3, offset: 0x19EE3, size: 0x8, addend: 0x0, symName: __ZNSt3__129_AllocatorDestroyRangeReverseINS_9allocatorI6bignumEENS_16reverse_iteratorIPS2_EEEC2B7v160006ERS3_RS6_S9_, symObjAddr: 0xC0A0, symBinAddr: 0x10000C878, symSize: 0x38 }
  - { offsetInCU: 0x19F3A, offset: 0x19F3A, size: 0x8, addend: 0x0, symName: __ZNSt3__19allocatorI6bignumE9constructB7v160006IS1_JS1_EEEvPT_DpOT0_, symObjAddr: 0xC0D8, symBinAddr: 0x10000C8B0, symSize: 0x30 }
  - { offsetInCU: 0x19F95, offset: 0x19F95, size: 0x8, addend: 0x0, symName: __ZNSt3__119__to_address_helperINS_16reverse_iteratorIP6bignumEEvE6__callB7v160006ERKS4_, symObjAddr: 0xC108, symBinAddr: 0x10000C8E0, symSize: 0x38 }
  - { offsetInCU: 0x19FB8, offset: 0x19FB8, size: 0x8, addend: 0x0, symName: __ZNKSt3__116reverse_iteratorIP6bignumEptB7v160006Ev, symObjAddr: 0xC140, symBinAddr: 0x10000C918, symSize: 0x24 }
  - { offsetInCU: 0x19FDE, offset: 0x19FDE, size: 0x8, addend: 0x0, symName: __ZNSt3__128__exception_guard_exceptionsINS_29_AllocatorDestroyRangeReverseINS_9allocatorI6bignumEENS_16reverse_iteratorIPS3_EEEEED2B7v160006Ev, symObjAddr: 0xC164, symBinAddr: 0x10000C93C, symSize: 0x50 }
  - { offsetInCU: 0x1A008, offset: 0x1A008, size: 0x8, addend: 0x0, symName: __ZNKSt3__129_AllocatorDestroyRangeReverseINS_9allocatorI6bignumEENS_16reverse_iteratorIPS2_EEEclB7v160006Ev, symObjAddr: 0xC1B4, symBinAddr: 0x10000C98C, symSize: 0xB4 }
  - { offsetInCU: 0x1A02F, offset: 0x1A02F, size: 0x8, addend: 0x0, symName: __ZNSt3__116reverse_iteratorINS0_IP6bignumEEEC1B7v160006ES3_, symObjAddr: 0xC2D8, symBinAddr: 0x10000CAB0, symSize: 0x3C }
  - { offsetInCU: 0x1A067, offset: 0x1A067, size: 0x8, addend: 0x0, symName: __ZNSt3__116reverse_iteratorINS0_IP6bignumEEEppB7v160006Ev, symObjAddr: 0xC398, symBinAddr: 0x10000CB70, symSize: 0x30 }
  - { offsetInCU: 0x1A08D, offset: 0x1A08D, size: 0x8, addend: 0x0, symName: __ZNKSt3__116reverse_iteratorINS0_IP6bignumEEE4baseB7v160006Ev, symObjAddr: 0xC3C8, symBinAddr: 0x10000CBA0, symSize: 0x24 }
  - { offsetInCU: 0x1A0B8, offset: 0x1A0B8, size: 0x8, addend: 0x0, symName: __ZNSt3__119__to_address_helperINS_16reverse_iteratorINS1_IP6bignumEEEEvE6__callB7v160006ERKS5_, symObjAddr: 0xC3EC, symBinAddr: 0x10000CBC4, symSize: 0x38 }
  - { offsetInCU: 0x1A0DB, offset: 0x1A0DB, size: 0x8, addend: 0x0, symName: __ZNKSt3__116reverse_iteratorINS0_IP6bignumEEEptB7v160006Ev, symObjAddr: 0xC424, symBinAddr: 0x10000CBFC, symSize: 0x24 }
  - { offsetInCU: 0x1A101, offset: 0x1A101, size: 0x8, addend: 0x0, symName: __ZNKSt3__116reverse_iteratorINS0_IP6bignumEEEdeB7v160006Ev, symObjAddr: 0xC448, symBinAddr: 0x10000CC20, symSize: 0x34 }
  - { offsetInCU: 0x1A135, offset: 0x1A135, size: 0x8, addend: 0x0, symName: __ZNSt3__116reverse_iteratorIP6bignumEmmB7v160006Ev, symObjAddr: 0xC47C, symBinAddr: 0x10000CC54, symSize: 0x20 }
  - { offsetInCU: 0x1A15B, offset: 0x1A15B, size: 0x8, addend: 0x0, symName: __ZNSt3__116reverse_iteratorINS0_IP6bignumEEEC2B7v160006ES3_, symObjAddr: 0xC49C, symBinAddr: 0x10000CC74, symSize: 0x2C }
  - { offsetInCU: 0x1A193, offset: 0x1A193, size: 0x8, addend: 0x0, symName: __ZNSt3__116reverse_iteratorIP6bignumEC2B7v160006ES2_, symObjAddr: 0xC4C8, symBinAddr: 0x10000CCA0, symSize: 0x28 }
  - { offsetInCU: 0x1A1CB, offset: 0x1A1CB, size: 0x8, addend: 0x0, symName: __ZNSt3__114__split_bufferI6bignumRNS_9allocatorIS1_EEED2Ev, symObjAddr: 0xC4F0, symBinAddr: 0x10000CCC8, symSize: 0x8C }
  - { offsetInCU: 0x1A1F7, offset: 0x1A1F7, size: 0x8, addend: 0x0, symName: __ZNSt3__114__split_bufferI6bignumRNS_9allocatorIS1_EEE5clearB7v160006Ev, symObjAddr: 0xC57C, symBinAddr: 0x10000CD54, symSize: 0x28 }
  - { offsetInCU: 0x1A21D, offset: 0x1A21D, size: 0x8, addend: 0x0, symName: __ZNKSt3__114__split_bufferI6bignumRNS_9allocatorIS1_EEE8capacityB7v160006Ev, symObjAddr: 0xC5A4, symBinAddr: 0x10000CD7C, symSize: 0x40 }
  - { offsetInCU: 0x1A243, offset: 0x1A243, size: 0x8, addend: 0x0, symName: __ZNSt3__114__split_bufferI6bignumRNS_9allocatorIS1_EEE17__destruct_at_endB7v160006EPS1_, symObjAddr: 0xC5E4, symBinAddr: 0x10000CDBC, symSize: 0x2C }
  - { offsetInCU: 0x1A277, offset: 0x1A277, size: 0x8, addend: 0x0, symName: __ZNSt3__114__split_bufferI6bignumRNS_9allocatorIS1_EEE17__destruct_at_endB7v160006EPS1_NS_17integral_constantIbLb0EEE, symObjAddr: 0xC610, symBinAddr: 0x10000CDE8, symSize: 0x80 }
  - { offsetInCU: 0x1A2B7, offset: 0x1A2B7, size: 0x8, addend: 0x0, symName: __ZNKSt3__114__split_bufferI6bignumRNS_9allocatorIS1_EEE9__end_capB7v160006Ev, symObjAddr: 0xC690, symBinAddr: 0x10000CE68, symSize: 0x28 }
  - { offsetInCU: 0x1A2DD, offset: 0x1A2DD, size: 0x8, addend: 0x0, symName: __ZNKSt3__117__compressed_pairIP6bignumRNS_9allocatorIS1_EEE5firstB7v160006Ev, symObjAddr: 0xC6B8, symBinAddr: 0x10000CE90, symSize: 0x24 }
  - { offsetInCU: 0x1A312, offset: 0x1A312, size: 0x8, addend: 0x0, symName: __ZNSt3__116_UnwrapAlgPolicyIRNS_6__lessI6bignumS2_EEE10__get_compB7v160006ES4_, symObjAddr: 0xC89C, symBinAddr: 0x10000D074, symSize: 0x14 }
  - { offsetInCU: 0x1A335, offset: 0x1A335, size: 0x8, addend: 0x0, symName: __ZNKSt3__16__lessI6bignumS1_EclB7v160006ERKS1_S4_, symObjAddr: 0xCF98, symBinAddr: 0x10000D770, symSize: 0x34 }
  - { offsetInCU: 0x1A377, offset: 0x1A377, size: 0x8, addend: 0x0, symName: __ZNSt3__18_IterOpsINS_17_ClassicAlgPolicyEE9iter_swapB7v160006IRP6bignumS6_EEvOT_OT0_, symObjAddr: 0xCFCC, symBinAddr: 0x10000D7A4, symSize: 0x34 }
  - { offsetInCU: 0x1A3BA, offset: 0x1A3BA, size: 0x8, addend: 0x0, symName: __ZNSt3__18_IterOpsINS_17_ClassicAlgPolicyEE11__iter_moveB7v160006IRP6bignumEENS_9enable_ifIXsr12is_referenceIDTdeclsr3stdE7declvalIRT_EEEEE5valueEDTclsr3stdE4movedeclsr3stdE7declvalIS9_EEEEE4typeEOS8_, symObjAddr: 0xD958, symBinAddr: 0x10000E130, symSize: 0x28 }
  - { offsetInCU: 0x1A3E6, offset: 0x1A3E6, size: 0x8, addend: 0x0, symName: __ZNSt3__18_IterOpsINS_17_ClassicAlgPolicyEE25__validate_iter_referenceB7v160006IRP6bignumEEvv, symObjAddr: 0xD980, symBinAddr: 0x10000E158, symSize: 0x4 }
  - { offsetInCU: 0x1A404, offset: 0x1A404, size: 0x8, addend: 0x0, symName: __ZNSt3__18_IterOpsINS_17_ClassicAlgPolicyEE4nextB7v160006IP6bignumEET_S6_S6_, symObjAddr: 0xD984, symBinAddr: 0x10000E15C, symSize: 0x18 }
  - { offsetInCU: 0x1A43A, offset: 0x1A43A, size: 0x8, addend: 0x0, symName: __ZNSt3__118__unwrap_iter_implINS_11__wrap_iterIP6bignumEELb1EE8__unwrapB7v160006ES4_, symObjAddr: 0xE334, symBinAddr: 0x10000EB0C, symSize: 0x28 }
  - { offsetInCU: 0x1A467, offset: 0x1A467, size: 0x8, addend: 0x0, symName: __ZNSt3__119__to_address_helperINS_11__wrap_iterIP6bignumEEvE6__callB7v160006ERKS4_, symObjAddr: 0xE380, symBinAddr: 0x10000EB58, symSize: 0x30 }
  - { offsetInCU: 0x1A48A, offset: 0x1A48A, size: 0x8, addend: 0x0, symName: __ZNSt3__114pointer_traitsINS_11__wrap_iterIP6bignumEEE10to_addressB7v160006ES4_, symObjAddr: 0xE3B0, symBinAddr: 0x10000EB88, symSize: 0x2C }
...
